(lp0
(S'cppflags'
p1
ccopy_reg
_reconstructor
p2
(cino.utils
SpaceList
p3
c__builtin__
list
p4
(lp5
S'-mmcu=atmega328p'
p6
aS'-DF_CPU=16000000L'
p7
aS'-DARDUINO=105'
p8
aS'-I/usr/share/arduino/hardware/arduino/cores/arduino'
p9
aS'-ffunction-sections'
p10
aS'-fdata-sections'
p11
aS'-g'
p12
aS'-Os'
p13
aS'-w'
p14
aS'-I/usr/share/arduino/hardware/arduino/variants/standard'
p15
aS'-Ilib/aJson'
p16
aS'-Ilib/aJson/utility'
p17
aS'-I/usr/share/arduino/hardware/arduino/cores/arduino'
p18
aS'-I/usr/share/arduino/hardware/arduino/cores/arduino/avr-libc'
p19
atp20
Rp21
tp22
a(S'cxx'
p23
S'/usr/share/arduino/hardware/tools/avr/bin/avr-g++'
p24
tp25
a(S'arduino_libraries_dir'
p26
S'/usr/share/arduino/libraries'
p27
tp28
a(S'avrdude'
p29
S'/usr/share/arduino/hardware/tools/avrdude'
p30
tp31
a(S'ar'
p32
S'/usr/share/arduino/hardware/tools/avr/bin/avr-ar'
p33
tp34
a(S'names'
p35
(dp36
S'cpp'
p37
S'%s.cpp'
p38
sS'obj'
p39
S'%s.o'
p40
sS'lib'
p41
S'lib%s.a'
p42
sS'deps'
p43
S'%s.d'
p44
stp45
a(S'ldflags'
p46
g2
(g3
g4
(lp47
g6
aS'-Wl,-Os'
p48
aS'-Wl,--gc-sections'
p49
atp50
Rp51
tp52
a(S'arduino_lib_version'
p53
g2
(cino.environment
Version
p54
c__builtin__
tuple
p55
(I1
I0
I5
tp56
tp57
Rp58
tp59
a(S'objcopy'
p60
S'/usr/share/arduino/hardware/tools/avr/bin/avr-objcopy'
p61
tp62
a(S'board_models'
p63
cino.environment
BoardModels
p64
((lp65
(lp66
S'uno'
p67
a(dp68
S'_coredir'
p69
S'/usr/share/arduino/hardware/arduino'
p70
sS'bootloader'
p71
(dp72
S'extended_fuses'
p73
S'0x05'
p74
sS'high_fuses'
p75
S'0xde'
p76
sS'low_fuses'
p77
S'0xff'
p78
sS'lock_bits'
p79
S'0x0F'
p80
sS'file'
p81
S'optiboot_atmega328.hex'
p82
sS'path'
p83
S'optiboot'
p84
sS'unlock_bits'
p85
S'0x3F'
p86
ssS'build'
p87
(dp88
S'core'
p89
S'arduino'
p90
sS'mcu'
p91
S'atmega328p'
p92
sS'f_cpu'
p93
S'16000000L'
p94
sS'variant'
p95
S'standard'
p96
ssS'name'
p97
S'Arduino Uno'
p98
sS'upload'
p99
(dp100
S'protocol'
p101
S'arduino'
p102
sS'maximum_size'
p103
S'32256'
p104
sS'speed'
p105
S'115200'
p106
ssaa(lp107
S'atmega328'
p108
a(dp109
g69
S'/usr/share/arduino/hardware/arduino'
p110
sS'bootloader'
p111
(dp112
S'extended_fuses'
p113
S'0x05'
p114
sS'high_fuses'
p115
S'0xDA'
p116
sS'low_fuses'
p117
S'0xFF'
p118
sS'lock_bits'
p119
S'0x0F'
p120
sS'file'
p121
S'ATmegaBOOT_168_atmega328.hex'
p122
sS'path'
p123
S'atmega'
p124
sS'unlock_bits'
p125
S'0x3F'
p126
ssS'build'
p127
(dp128
S'core'
p129
S'arduino'
p130
sS'mcu'
p131
S'atmega328p'
p132
sS'f_cpu'
p133
S'16000000L'
p134
sS'variant'
p135
S'standard'
p136
ssS'name'
p137
S'Arduino Duemilanove w/ ATmega328'
p138
sS'upload'
p139
(dp140
S'protocol'
p141
S'arduino'
p142
sS'maximum_size'
p143
S'30720'
p144
sS'speed'
p145
S'57600'
p146
ssaa(lp147
S'diecimila'
p148
a(dp149
g69
S'/usr/share/arduino/hardware/arduino'
p150
sS'bootloader'
p151
(dp152
S'extended_fuses'
p153
S'0x00'
p154
sS'high_fuses'
p155
S'0xdd'
p156
sS'low_fuses'
p157
S'0xff'
p158
sS'lock_bits'
p159
S'0x0F'
p160
sS'file'
p161
S'ATmegaBOOT_168_diecimila.hex'
p162
sS'path'
p163
S'atmega'
p164
sS'unlock_bits'
p165
S'0x3F'
p166
ssS'build'
p167
(dp168
S'core'
p169
S'arduino'
p170
sS'mcu'
p171
S'atmega168'
p172
sS'f_cpu'
p173
S'16000000L'
p174
sS'variant'
p175
S'standard'
p176
ssS'name'
p177
S'Arduino Diecimila or Duemilanove w/ ATmega168'
p178
sS'upload'
p179
(dp180
S'protocol'
p181
S'arduino'
p182
sS'maximum_size'
p183
S'14336'
p184
sS'speed'
p185
S'19200'
p186
ssaa(lp187
S'nano328'
p188
a(dp189
g69
S'/usr/share/arduino/hardware/arduino'
p190
sS'bootloader'
p191
(dp192
S'extended_fuses'
p193
S'0x05'
p194
sS'high_fuses'
p195
S'0xDA'
p196
sS'low_fuses'
p197
S'0xFF'
p198
sS'lock_bits'
p199
S'0x0F'
p200
sS'file'
p201
S'ATmegaBOOT_168_atmega328.hex'
p202
sS'path'
p203
S'atmega'
p204
sS'unlock_bits'
p205
S'0x3F'
p206
ssS'build'
p207
(dp208
S'core'
p209
S'arduino'
p210
sS'mcu'
p211
S'atmega328p'
p212
sS'f_cpu'
p213
S'16000000L'
p214
sS'variant'
p215
S'eightanaloginputs'
p216
ssS'name'
p217
S'Arduino Nano w/ ATmega328'
p218
sS'upload'
p219
(dp220
S'protocol'
p221
S'arduino'
p222
sS'maximum_size'
p223
S'30720'
p224
sS'speed'
p225
S'57600'
p226
ssaa(lp227
S'nano'
p228
a(dp229
g69
S'/usr/share/arduino/hardware/arduino'
p230
sS'bootloader'
p231
(dp232
S'extended_fuses'
p233
S'0x00'
p234
sS'high_fuses'
p235
S'0xdd'
p236
sS'low_fuses'
p237
S'0xff'
p238
sS'lock_bits'
p239
S'0x0F'
p240
sS'file'
p241
S'ATmegaBOOT_168_diecimila.hex'
p242
sS'path'
p243
S'atmega'
p244
sS'unlock_bits'
p245
S'0x3F'
p246
ssS'build'
p247
(dp248
S'core'
p249
S'arduino'
p250
sS'mcu'
p251
S'atmega168'
p252
sS'f_cpu'
p253
S'16000000L'
p254
sS'variant'
p255
S'eightanaloginputs'
p256
ssS'name'
p257
S'Arduino Nano w/ ATmega168'
p258
sS'upload'
p259
(dp260
S'protocol'
p261
S'arduino'
p262
sS'maximum_size'
p263
S'14336'
p264
sS'speed'
p265
S'19200'
p266
ssaa(lp267
S'mega2560'
p268
a(dp269
g69
S'/usr/share/arduino/hardware/arduino'
p270
sS'bootloader'
p271
(dp272
S'extended_fuses'
p273
S'0xFD'
p274
sS'high_fuses'
p275
S'0xD8'
p276
sS'low_fuses'
p277
S'0xFF'
p278
sS'lock_bits'
p279
S'0x0F'
p280
sS'file'
p281
S'stk500boot_v2_mega2560.hex'
p282
sS'path'
p283
S'stk500v2'
p284
sS'unlock_bits'
p285
S'0x3F'
p286
ssS'build'
p287
(dp288
S'core'
p289
S'arduino'
p290
sS'mcu'
p291
S'atmega2560'
p292
sS'f_cpu'
p293
S'16000000L'
p294
sS'variant'
p295
S'mega'
p296
ssS'name'
p297
S'Arduino Mega 2560 or Mega ADK'
p298
sS'upload'
p299
(dp300
S'protocol'
p301
S'wiring'
p302
sS'maximum_size'
p303
S'258048'
p304
sS'speed'
p305
S'115200'
p306
ssaa(lp307
S'mega'
p308
a(dp309
g69
S'/usr/share/arduino/hardware/arduino'
p310
sS'bootloader'
p311
(dp312
S'extended_fuses'
p313
S'0xF5'
p314
sS'high_fuses'
p315
S'0xDA'
p316
sS'low_fuses'
p317
S'0xFF'
p318
sS'lock_bits'
p319
S'0x0F'
p320
sS'file'
p321
S'ATmegaBOOT_168_atmega1280.hex'
p322
sS'path'
p323
S'atmega'
p324
sS'unlock_bits'
p325
S'0x3F'
p326
ssS'build'
p327
(dp328
S'core'
p329
S'arduino'
p330
sS'mcu'
p331
S'atmega1280'
p332
sS'f_cpu'
p333
S'16000000L'
p334
sS'variant'
p335
S'mega'
p336
ssS'name'
p337
S'Arduino Mega (ATmega1280)'
p338
sS'upload'
p339
(dp340
S'protocol'
p341
S'arduino'
p342
sS'maximum_size'
p343
S'126976'
p344
sS'speed'
p345
S'57600'
p346
ssaa(lp347
S'leonardo'
p348
a(dp349
g69
S'/usr/share/arduino/hardware/arduino'
p350
sS'bootloader'
p351
(dp352
S'extended_fuses'
p353
S'0xcb'
p354
sS'high_fuses'
p355
S'0xd8'
p356
sS'low_fuses'
p357
S'0xff'
p358
sS'lock_bits'
p359
S'0x2F'
p360
sS'file'
p361
S'Caterina-Leonardo.hex'
p362
sS'path'
p363
S'caterina'
p364
sS'unlock_bits'
p365
S'0x3F'
p366
ssS'build'
p367
(dp368
S'core'
p369
S'arduino'
p370
sS'f_cpu'
p371
S'16000000L'
p372
sS'vid'
p373
S'0x2341'
p374
sS'pid'
p375
S'0x8036'
p376
sS'variant'
p377
S'leonardo'
p378
sS'mcu'
p379
S'atmega32u4'
p380
ssS'name'
p381
S'Arduino Leonardo'
p382
sS'upload'
p383
(dp384
S'protocol'
p385
S'avr109'
p386
sS'maximum_size'
p387
S'28672'
p388
sS'speed'
p389
S'57600'
p390
sS'disable_flushing'
p391
S'true'
p392
ssaa(lp393
S'esplora'
p394
a(dp395
g69
S'/usr/share/arduino/hardware/arduino'
p396
sS'bootloader'
p397
(dp398
S'extended_fuses'
p399
S'0xcb'
p400
sS'high_fuses'
p401
S'0xd8'
p402
sS'low_fuses'
p403
S'0xff'
p404
sS'lock_bits'
p405
S'0x2F'
p406
sS'file'
p407
S'Caterina-Esplora.hex'
p408
sS'path'
p409
S'caterina'
p410
sS'unlock_bits'
p411
S'0x3F'
p412
ssS'build'
p413
(dp414
S'core'
p415
S'arduino'
p416
sS'f_cpu'
p417
S'16000000L'
p418
sS'vid'
p419
S'0x2341'
p420
sS'pid'
p421
S'0x803C'
p422
sS'variant'
p423
S'leonardo'
p424
sS'mcu'
p425
S'atmega32u4'
p426
ssS'name'
p427
S'Arduino Esplora'
p428
sS'upload'
p429
(dp430
S'protocol'
p431
S'avr109'
p432
sS'maximum_size'
p433
S'28672'
p434
sS'speed'
p435
S'57600'
p436
sS'disable_flushing'
p437
S'true'
p438
ssaa(lp439
S'micro'
p440
a(dp441
g69
S'/usr/share/arduino/hardware/arduino'
p442
sS'bootloader'
p443
(dp444
S'extended_fuses'
p445
S'0xcb'
p446
sS'high_fuses'
p447
S'0xd8'
p448
sS'low_fuses'
p449
S'0xff'
p450
sS'lock_bits'
p451
S'0x2F'
p452
sS'file'
p453
S'Caterina-Micro.hex'
p454
sS'path'
p455
S'caterina'
p456
sS'unlock_bits'
p457
S'0x3F'
p458
ssS'build'
p459
(dp460
S'core'
p461
S'arduino'
p462
sS'f_cpu'
p463
S'16000000L'
p464
sS'vid'
p465
S'0x2341'
p466
sS'pid'
p467
S'0x8037'
p468
sS'variant'
p469
S'micro'
p470
sS'mcu'
p471
S'atmega32u4'
p472
ssS'name'
p473
S'Arduino Micro'
p474
sS'upload'
p475
(dp476
S'protocol'
p477
S'avr109'
p478
sS'maximum_size'
p479
S'28672'
p480
sS'speed'
p481
S'57600'
p482
sS'disable_flushing'
p483
S'true'
p484
ssaa(lp485
S'mini328'
p486
a(dp487
g69
S'/usr/share/arduino/hardware/arduino'
p488
sS'bootloader'
p489
(dp490
S'extended_fuses'
p491
S'0x05'
p492
sS'high_fuses'
p493
S'0xd8'
p494
sS'low_fuses'
p495
S'0xff'
p496
sS'lock_bits'
p497
S'0x0F'
p498
sS'file'
p499
S'optiboot_atmega328-Mini.hex'
p500
sS'path'
p501
S'optiboot'
p502
sS'unlock_bits'
p503
S'0x3F'
p504
ssS'build'
p505
(dp506
S'core'
p507
S'arduino'
p508
sS'mcu'
p509
S'atmega328p'
p510
sS'f_cpu'
p511
S'16000000L'
p512
sS'variant'
p513
S'eightanaloginputs'
p514
ssS'name'
p515
S'Arduino Mini w/ ATmega328'
p516
sS'upload'
p517
(dp518
S'protocol'
p519
S'arduino'
p520
sS'maximum_size'
p521
S'28672'
p522
sS'speed'
p523
S'115200'
p524
ssaa(lp525
S'mini'
p526
a(dp527
g69
S'/usr/share/arduino/hardware/arduino'
p528
sS'bootloader'
p529
(dp530
S'extended_fuses'
p531
S'0x00'
p532
sS'high_fuses'
p533
S'0xdd'
p534
sS'low_fuses'
p535
S'0xff'
p536
sS'lock_bits'
p537
S'0x0F'
p538
sS'file'
p539
S'ATmegaBOOT_168_ng.hex'
p540
sS'path'
p541
S'atmega'
p542
sS'unlock_bits'
p543
S'0x3F'
p544
ssS'build'
p545
(dp546
S'core'
p547
S'arduino'
p548
sS'mcu'
p549
S'atmega168'
p550
sS'f_cpu'
p551
S'16000000L'
p552
sS'variant'
p553
S'eightanaloginputs'
p554
ssS'name'
p555
S'Arduino Mini w/ ATmega168'
p556
sS'upload'
p557
(dp558
S'protocol'
p559
S'arduino'
p560
sS'maximum_size'
p561
S'14336'
p562
sS'speed'
p563
S'19200'
p564
ssaa(lp565
S'ethernet'
p566
a(dp567
g69
S'/usr/share/arduino/hardware/arduino'
p568
sS'bootloader'
p569
(dp570
S'extended_fuses'
p571
S'0x05'
p572
sS'high_fuses'
p573
S'0xde'
p574
sS'low_fuses'
p575
S'0xff'
p576
sS'lock_bits'
p577
S'0x0F'
p578
sS'file'
p579
S'optiboot_atmega328.hex'
p580
sS'path'
p581
S'optiboot'
p582
sS'unlock_bits'
p583
S'0x3F'
p584
ssS'build'
p585
(dp586
S'variant'
p587
S'standard'
p588
sS'mcu'
p589
S'atmega328p'
p590
sS'f_cpu'
p591
S'16000000L'
p592
sS'core'
p593
S'arduino'
p594
ssS'name'
p595
S'Arduino Ethernet'
p596
sS'upload'
p597
(dp598
S'protocol'
p599
S'arduino'
p600
sS'maximum_size'
p601
S'32256'
p602
sS'speed'
p603
S'115200'
p604
ssaa(lp605
S'fio'
p606
a(dp607
g69
S'/usr/share/arduino/hardware/arduino'
p608
sS'bootloader'
p609
(dp610
S'extended_fuses'
p611
S'0x05'
p612
sS'high_fuses'
p613
S'0xDA'
p614
sS'low_fuses'
p615
S'0xFF'
p616
sS'lock_bits'
p617
S'0x0F'
p618
sS'file'
p619
S'ATmegaBOOT_168_atmega328_pro_8MHz.hex'
p620
sS'path'
p621
S'arduino:atmega'
p622
sS'unlock_bits'
p623
S'0x3F'
p624
ssS'build'
p625
(dp626
S'core'
p627
S'arduino'
p628
sS'mcu'
p629
S'atmega328p'
p630
sS'f_cpu'
p631
S'8000000L'
p632
sS'variant'
p633
S'eightanaloginputs'
p634
ssS'name'
p635
S'Arduino Fio'
p636
sS'upload'
p637
(dp638
S'protocol'
p639
S'arduino'
p640
sS'maximum_size'
p641
S'30720'
p642
sS'speed'
p643
S'57600'
p644
ssaa(lp645
S'bt328'
p646
a(dp647
g69
S'/usr/share/arduino/hardware/arduino'
p648
sS'bootloader'
p649
(dp650
S'extended_fuses'
p651
S'0x05'
p652
sS'high_fuses'
p653
S'0xd8'
p654
sS'low_fuses'
p655
S'0xff'
p656
sS'lock_bits'
p657
S'0x0F'
p658
sS'file'
p659
S'ATmegaBOOT_168_atmega328_bt.hex'
p660
sS'path'
p661
S'bt'
p662
sS'unlock_bits'
p663
S'0x3F'
p664
ssS'build'
p665
(dp666
S'core'
p667
S'arduino'
p668
sS'mcu'
p669
S'atmega328p'
p670
sS'f_cpu'
p671
S'16000000L'
p672
sS'variant'
p673
S'eightanaloginputs'
p674
ssS'name'
p675
S'Arduino BT w/ ATmega328'
p676
sS'upload'
p677
(dp678
S'protocol'
p679
S'arduino'
p680
sS'maximum_size'
p681
S'28672'
p682
sS'speed'
p683
S'19200'
p684
sS'disable_flushing'
p685
S'true'
p686
ssaa(lp687
S'bt'
p688
a(dp689
g69
S'/usr/share/arduino/hardware/arduino'
p690
sS'bootloader'
p691
(dp692
S'extended_fuses'
p693
S'0x00'
p694
sS'high_fuses'
p695
S'0xdd'
p696
sS'low_fuses'
p697
S'0xff'
p698
sS'lock_bits'
p699
S'0x0F'
p700
sS'file'
p701
S'ATmegaBOOT_168.hex'
p702
sS'path'
p703
S'bt'
p704
sS'unlock_bits'
p705
S'0x3F'
p706
ssS'build'
p707
(dp708
S'core'
p709
S'arduino'
p710
sS'mcu'
p711
S'atmega168'
p712
sS'f_cpu'
p713
S'16000000L'
p714
sS'variant'
p715
S'eightanaloginputs'
p716
ssS'name'
p717
S'Arduino BT w/ ATmega168'
p718
sS'upload'
p719
(dp720
S'protocol'
p721
S'arduino'
p722
sS'maximum_size'
p723
S'14336'
p724
sS'speed'
p725
S'19200'
p726
sS'disable_flushing'
p727
S'true'
p728
ssaa(lp729
S'LilyPadUSB'
p730
a(dp731
g69
S'/usr/share/arduino/hardware/arduino'
p732
sS'bootloader'
p733
(dp734
S'extended_fuses'
p735
S'0xce'
p736
sS'high_fuses'
p737
S'0xd8'
p738
sS'low_fuses'
p739
S'0xff'
p740
sS'lock_bits'
p741
S'0x2F'
p742
sS'file'
p743
S'Caterina-LilyPadUSB.hex'
p744
sS'path'
p745
S'caterina-LilyPadUSB'
p746
sS'unlock_bits'
p747
S'0x3F'
p748
ssS'build'
p749
(dp750
S'core'
p751
S'arduino'
p752
sS'f_cpu'
p753
S'8000000L'
p754
sS'vid'
p755
S'0x1B4F'
p756
sS'pid'
p757
S'0x9208'
p758
sS'variant'
p759
S'leonardo'
p760
sS'mcu'
p761
S'atmega32u4'
p762
ssS'name'
p763
S'LilyPad Arduino USB'
p764
sS'upload'
p765
(dp766
S'protocol'
p767
S'avr109'
p768
sS'maximum_size'
p769
S'28672'
p770
sS'speed'
p771
S'57600'
p772
sS'disable_flushing'
p773
S'true'
p774
ssaa(lp775
S'lilypad328'
p776
a(dp777
g69
S'/usr/share/arduino/hardware/arduino'
p778
sS'bootloader'
p779
(dp780
S'extended_fuses'
p781
S'0x05'
p782
sS'high_fuses'
p783
S'0xDA'
p784
sS'low_fuses'
p785
S'0xFF'
p786
sS'lock_bits'
p787
S'0x0F'
p788
sS'file'
p789
S'ATmegaBOOT_168_atmega328_pro_8MHz.hex'
p790
sS'path'
p791
S'atmega'
p792
sS'unlock_bits'
p793
S'0x3F'
p794
ssS'build'
p795
(dp796
S'core'
p797
S'arduino'
p798
sS'mcu'
p799
S'atmega328p'
p800
sS'f_cpu'
p801
S'8000000L'
p802
sS'variant'
p803
S'standard'
p804
ssS'name'
p805
S'LilyPad Arduino w/ ATmega328'
p806
sS'upload'
p807
(dp808
S'protocol'
p809
S'arduino'
p810
sS'maximum_size'
p811
S'30720'
p812
sS'speed'
p813
S'57600'
p814
ssaa(lp815
S'lilypad'
p816
a(dp817
g69
S'/usr/share/arduino/hardware/arduino'
p818
sS'bootloader'
p819
(dp820
S'extended_fuses'
p821
S'0x00'
p822
sS'high_fuses'
p823
S'0xdd'
p824
sS'low_fuses'
p825
S'0xe2'
p826
sS'lock_bits'
p827
S'0x0F'
p828
sS'file'
p829
S'LilyPadBOOT_168.hex'
p830
sS'path'
p831
S'lilypad'
p832
sS'unlock_bits'
p833
S'0x3F'
p834
ssS'build'
p835
(dp836
S'core'
p837
S'arduino'
p838
sS'mcu'
p839
S'atmega168'
p840
sS'f_cpu'
p841
S'8000000L'
p842
sS'variant'
p843
S'standard'
p844
ssS'name'
p845
S'LilyPad Arduino w/ ATmega168'
p846
sS'upload'
p847
(dp848
S'protocol'
p849
S'arduino'
p850
sS'maximum_size'
p851
S'14336'
p852
sS'speed'
p853
S'19200'
p854
ssaa(lp855
S'pro5v328'
p856
a(dp857
g69
S'/usr/share/arduino/hardware/arduino'
p858
sS'bootloader'
p859
(dp860
S'extended_fuses'
p861
S'0x05'
p862
sS'high_fuses'
p863
S'0xDA'
p864
sS'low_fuses'
p865
S'0xFF'
p866
sS'lock_bits'
p867
S'0x0F'
p868
sS'file'
p869
S'ATmegaBOOT_168_atmega328.hex'
p870
sS'path'
p871
S'atmega'
p872
sS'unlock_bits'
p873
S'0x3F'
p874
ssS'build'
p875
(dp876
S'core'
p877
S'arduino'
p878
sS'mcu'
p879
S'atmega328p'
p880
sS'f_cpu'
p881
S'16000000L'
p882
sS'variant'
p883
S'standard'
p884
ssS'name'
p885
S'Arduino Pro or Pro Mini (5V, 16 MHz) w/ ATmega328'
p886
sS'upload'
p887
(dp888
S'protocol'
p889
S'arduino'
p890
sS'maximum_size'
p891
S'30720'
p892
sS'speed'
p893
S'57600'
p894
ssaa(lp895
S'pro5v'
p896
a(dp897
g69
S'/usr/share/arduino/hardware/arduino'
p898
sS'bootloader'
p899
(dp900
S'extended_fuses'
p901
S'0x00'
p902
sS'high_fuses'
p903
S'0xdd'
p904
sS'low_fuses'
p905
S'0xff'
p906
sS'lock_bits'
p907
S'0x0F'
p908
sS'file'
p909
S'ATmegaBOOT_168_diecimila.hex'
p910
sS'path'
p911
S'atmega'
p912
sS'unlock_bits'
p913
S'0x3F'
p914
ssS'build'
p915
(dp916
S'core'
p917
S'arduino'
p918
sS'mcu'
p919
S'atmega168'
p920
sS'f_cpu'
p921
S'16000000L'
p922
sS'variant'
p923
S'standard'
p924
ssS'name'
p925
S'Arduino Pro or Pro Mini (5V, 16 MHz) w/ ATmega168'
p926
sS'upload'
p927
(dp928
S'protocol'
p929
S'arduino'
p930
sS'maximum_size'
p931
S'14336'
p932
sS'speed'
p933
S'19200'
p934
ssaa(lp935
S'pro328'
p936
a(dp937
g69
S'/usr/share/arduino/hardware/arduino'
p938
sS'bootloader'
p939
(dp940
S'extended_fuses'
p941
S'0x05'
p942
sS'high_fuses'
p943
S'0xDA'
p944
sS'low_fuses'
p945
S'0xFF'
p946
sS'lock_bits'
p947
S'0x0F'
p948
sS'file'
p949
S'ATmegaBOOT_168_atmega328_pro_8MHz.hex'
p950
sS'path'
p951
S'atmega'
p952
sS'unlock_bits'
p953
S'0x3F'
p954
ssS'build'
p955
(dp956
S'core'
p957
S'arduino'
p958
sS'mcu'
p959
S'atmega328p'
p960
sS'f_cpu'
p961
S'8000000L'
p962
sS'variant'
p963
S'standard'
p964
ssS'name'
p965
S'Arduino Pro or Pro Mini (3.3V, 8 MHz) w/ ATmega328'
p966
sS'upload'
p967
(dp968
S'protocol'
p969
S'arduino'
p970
sS'maximum_size'
p971
S'30720'
p972
sS'speed'
p973
S'57600'
p974
ssaa(lp975
S'pro'
p976
a(dp977
g69
S'/usr/share/arduino/hardware/arduino'
p978
sS'bootloader'
p979
(dp980
S'extended_fuses'
p981
S'0x00'
p982
sS'high_fuses'
p983
S'0xdd'
p984
sS'low_fuses'
p985
S'0xc6'
p986
sS'lock_bits'
p987
S'0x0F'
p988
sS'file'
p989
S'ATmegaBOOT_168_pro_8MHz.hex'
p990
sS'path'
p991
S'atmega'
p992
sS'unlock_bits'
p993
S'0x3F'
p994
ssS'build'
p995
(dp996
S'core'
p997
S'arduino'
p998
sS'mcu'
p999
S'atmega168'
p1000
sS'f_cpu'
p1001
S'8000000L'
p1002
sS'variant'
p1003
S'standard'
p1004
ssS'name'
p1005
S'Arduino Pro or Pro Mini (3.3V, 8 MHz) w/ ATmega168'
p1006
sS'upload'
p1007
(dp1008
S'protocol'
p1009
S'arduino'
p1010
sS'maximum_size'
p1011
S'14336'
p1012
sS'speed'
p1013
S'19200'
p1014
ssaa(lp1015
S'atmega168'
p1016
a(dp1017
g69
S'/usr/share/arduino/hardware/arduino'
p1018
sS'bootloader'
p1019
(dp1020
S'extended_fuses'
p1021
S'0x00'
p1022
sS'high_fuses'
p1023
S'0xdd'
p1024
sS'low_fuses'
p1025
S'0xff'
p1026
sS'lock_bits'
p1027
S'0x0F'
p1028
sS'file'
p1029
S'ATmegaBOOT_168_ng.hex'
p1030
sS'path'
p1031
S'atmega'
p1032
sS'unlock_bits'
p1033
S'0x3F'
p1034
ssS'build'
p1035
(dp1036
S'core'
p1037
S'arduino'
p1038
sS'mcu'
p1039
S'atmega168'
p1040
sS'f_cpu'
p1041
S'16000000L'
p1042
sS'variant'
p1043
S'standard'
p1044
ssS'name'
p1045
S'Arduino NG or older w/ ATmega168'
p1046
sS'upload'
p1047
(dp1048
S'protocol'
p1049
S'arduino'
p1050
sS'maximum_size'
p1051
S'14336'
p1052
sS'speed'
p1053
S'19200'
p1054
ssaa(lp1055
S'atmega8'
p1056
a(dp1057
g69
S'/usr/share/arduino/hardware/arduino'
p1058
sS'bootloader'
p1059
(dp1060
S'high_fuses'
p1061
S'0xca'
p1062
sS'low_fuses'
p1063
S'0xdf'
p1064
sS'lock_bits'
p1065
S'0x0F'
p1066
sS'file'
p1067
S'ATmegaBOOT-prod-firmware-2009-11-07.hex'
p1068
sS'path'
p1069
S'atmega8'
p1070
sS'unlock_bits'
p1071
S'0x3F'
p1072
ssS'build'
p1073
(dp1074
S'core'
p1075
S'arduino'
p1076
sS'mcu'
p1077
S'atmega8'
p1078
sS'f_cpu'
p1079
S'16000000L'
p1080
sS'variant'
p1081
S'standard'
p1082
ssS'name'
p1083
S'Arduino NG or older w/ ATmega8'
p1084
sS'upload'
p1085
(dp1086
S'protocol'
p1087
S'arduino'
p1088
sS'maximum_size'
p1089
S'7168'
p1090
sS'speed'
p1091
S'19200'
p1092
ssaa(lp1093
S'robotControl'
p1094
a(dp1095
g69
S'/usr/share/arduino/hardware/arduino'
p1096
sS'bootloader'
p1097
(dp1098
S'extended_fuses'
p1099
S'0xcb'
p1100
sS'high_fuses'
p1101
S'0xd8'
p1102
sS'low_fuses'
p1103
S'0xff'
p1104
sS'lock_bits'
p1105
S'0x2F'
p1106
sS'file'
p1107
S'Caterina-Robot-Control.hex'
p1108
sS'path'
p1109
S'caterina-Arduino_Robot'
p1110
sS'unlock_bits'
p1111
S'0x3F'
p1112
ssS'build'
p1113
(dp1114
S'core'
p1115
S'robot'
p1116
sS'f_cpu'
p1117
S'16000000L'
p1118
sS'vid'
p1119
S'0x2341'
p1120
sS'pid'
p1121
S'0x8038'
p1122
sS'variant'
p1123
S'robot_control'
p1124
sS'mcu'
p1125
S'atmega32u4'
p1126
ssS'name'
p1127
S'Arduino Robot Control'
p1128
sS'upload'
p1129
(dp1130
S'protocol'
p1131
S'avr109'
p1132
sS'maximum_size'
p1133
S'28672'
p1134
sS'speed'
p1135
S'57600'
p1136
sS'disable_flushing'
p1137
S'true'
p1138
ssaa(lp1139
S'robotMotor'
p1140
a(dp1141
g69
S'/usr/share/arduino/hardware/arduino'
p1142
sS'bootloader'
p1143
(dp1144
S'extended_fuses'
p1145
S'0xcb'
p1146
sS'high_fuses'
p1147
S'0xd8'
p1148
sS'low_fuses'
p1149
S'0xff'
p1150
sS'lock_bits'
p1151
S'0x2F'
p1152
sS'file'
p1153
S'Caterina-Robot-Motor.hex'
p1154
sS'path'
p1155
S'caterina-Arduino_Robot'
p1156
sS'unlock_bits'
p1157
S'0x3F'
p1158
ssS'build'
p1159
(dp1160
S'core'
p1161
S'robot'
p1162
sS'f_cpu'
p1163
S'16000000L'
p1164
sS'vid'
p1165
S'0x2341'
p1166
sS'pid'
p1167
S'0x8039'
p1168
sS'variant'
p1169
S'robot_motor'
p1170
sS'mcu'
p1171
S'atmega32u4'
p1172
ssS'name'
p1173
S'Arduino Robot Motor'
p1174
sS'upload'
p1175
(dp1176
S'protocol'
p1177
S'avr109'
p1178
sS'maximum_size'
p1179
S'28672'
p1180
sS'speed'
p1181
S'57600'
p1182
sS'disable_flushing'
p1183
S'true'
p1184
ssaatp1185
Rp1186
(dp1187
S'default'
p1188
S'uno'
p1189
sbtp1190
a(S'used_libs'
p1191
(lp1192
S'lib/aJson'
p1193
aS'/usr/share/arduino/hardware/arduino/cores/arduino'
p1194
atp1195
a(S'make'
p1196
S'/usr/share/arduino/hardware/tools/avr/bin/make'
p1197
tp1198
a(S'build_dir'
p1199
S'.build/uno'
p1200
tp1201
a(S'cc'
p1202
S'/usr/share/arduino/hardware/tools/avr/bin/avr-gcc'
p1203
tp1204
a(S'cflags'
p1205
g2
(g3
g4
(lp1206
tp1207
Rp1208
tp1209
a(S'cxxflags'
p1210
g2
(g3
g4
(lp1211
S'-fno-exceptions'
p1212
atp1213
Rp1214
tp1215
a(S'arduino_variants_dir'
p1216
S'/usr/share/arduino/hardware/arduino/variants'
p1217
tp1218
a(S'stty'
p1219
S'/bin/stty'
p1220
tp1221
a(S'version.txt'
p1222
S'/usr/share/arduino/lib/version.txt'
p1223
tp1224
a(S'arduino_core_dir'
p1225
g1194
tp1226
a(S'boards.txt'
p1227
(lp1228
S'/usr/share/arduino/hardware/arduino/boards.txt'
p1229
atp1230
a(S'avrdude.conf'
p1231
S'/usr/share/arduino/hardware/tools/avrdude.conf'
p1232
tp1233
a(g43
g2
(g3
g4
(lp1234
S'.build/uno/src/dependencies.d'
p1235
aS'.build/uno/arduino/dependencies.d'
p1236
aS'.build/uno/aJson/dependencies.d'
p1237
atp1238
Rp1239
tp1240
a.