(lp0
(S'cppflags'
p1
ccopy_reg
_reconstructor
p2
(cino.utils
SpaceList
p3
c__builtin__
list
p4
(lp5
S'-mmcu=atmega328p'
p6
aS'-DF_CPU=16000000L'
p7
aS'-DARDUINO=105'
p8
aS'-I/usr/share/arduino/hardware/arduino/cores/arduino'
p9
aS'-ffunction-sections'
p10
aS'-fdata-sections'
p11
aS'-g'
p12
aS'-Os'
p13
aS'-w'
p14
aS'-I/usr/share/arduino/hardware/arduino/variants/standard'
p15
atp16
Rp17
tp18
a(S'cxx'
p19
S'/usr/share/arduino/hardware/tools/avr/bin/avr-g++'
p20
tp21
a(S'arduino_libraries_dir'
p22
S'/usr/share/arduino/libraries'
p23
tp24
a(S'avrdude'
p25
S'/usr/share/arduino/hardware/tools/avrdude'
p26
tp27
a(S'ar'
p28
S'/usr/share/arduino/hardware/tools/avr/bin/avr-ar'
p29
tp30
a(S'names'
p31
(dp32
S'cpp'
p33
S'%s.cpp'
p34
sS'obj'
p35
S'%s.o'
p36
sS'lib'
p37
S'lib%s.a'
p38
sS'deps'
p39
S'%s.d'
p40
stp41
a(S'ldflags'
p42
g2
(g3
g4
(lp43
g6
aS'-Wl,-Os'
p44
aS'-Wl,--gc-sections'
p45
atp46
Rp47
tp48
a(S'arduino_lib_version'
p49
g2
(cino.environment
Version
p50
c__builtin__
tuple
p51
(I1
I0
I5
tp52
tp53
Rp54
tp55
a(S'objcopy'
p56
S'/usr/share/arduino/hardware/tools/avr/bin/avr-objcopy'
p57
tp58
a(S'board_models'
p59
cino.environment
BoardModels
p60
((lp61
(lp62
S'uno'
p63
a(dp64
S'_coredir'
p65
S'/usr/share/arduino/hardware/arduino'
p66
sS'bootloader'
p67
(dp68
S'extended_fuses'
p69
S'0x05'
p70
sS'high_fuses'
p71
S'0xde'
p72
sS'low_fuses'
p73
S'0xff'
p74
sS'lock_bits'
p75
S'0x0F'
p76
sS'file'
p77
S'optiboot_atmega328.hex'
p78
sS'path'
p79
S'optiboot'
p80
sS'unlock_bits'
p81
S'0x3F'
p82
ssS'build'
p83
(dp84
S'core'
p85
S'arduino'
p86
sS'mcu'
p87
S'atmega328p'
p88
sS'f_cpu'
p89
S'16000000L'
p90
sS'variant'
p91
S'standard'
p92
ssS'name'
p93
S'Arduino Uno'
p94
sS'upload'
p95
(dp96
S'protocol'
p97
S'arduino'
p98
sS'maximum_size'
p99
S'32256'
p100
sS'speed'
p101
S'115200'
p102
ssaa(lp103
S'atmega328'
p104
a(dp105
g65
S'/usr/share/arduino/hardware/arduino'
p106
sS'bootloader'
p107
(dp108
S'extended_fuses'
p109
S'0x05'
p110
sS'high_fuses'
p111
S'0xDA'
p112
sS'low_fuses'
p113
S'0xFF'
p114
sS'lock_bits'
p115
S'0x0F'
p116
sS'file'
p117
S'ATmegaBOOT_168_atmega328.hex'
p118
sS'path'
p119
S'atmega'
p120
sS'unlock_bits'
p121
S'0x3F'
p122
ssS'build'
p123
(dp124
S'core'
p125
S'arduino'
p126
sS'mcu'
p127
S'atmega328p'
p128
sS'f_cpu'
p129
S'16000000L'
p130
sS'variant'
p131
S'standard'
p132
ssS'name'
p133
S'Arduino Duemilanove w/ ATmega328'
p134
sS'upload'
p135
(dp136
S'protocol'
p137
S'arduino'
p138
sS'maximum_size'
p139
S'30720'
p140
sS'speed'
p141
S'57600'
p142
ssaa(lp143
S'diecimila'
p144
a(dp145
g65
S'/usr/share/arduino/hardware/arduino'
p146
sS'bootloader'
p147
(dp148
S'extended_fuses'
p149
S'0x00'
p150
sS'high_fuses'
p151
S'0xdd'
p152
sS'low_fuses'
p153
S'0xff'
p154
sS'lock_bits'
p155
S'0x0F'
p156
sS'file'
p157
S'ATmegaBOOT_168_diecimila.hex'
p158
sS'path'
p159
S'atmega'
p160
sS'unlock_bits'
p161
S'0x3F'
p162
ssS'build'
p163
(dp164
S'core'
p165
S'arduino'
p166
sS'mcu'
p167
S'atmega168'
p168
sS'f_cpu'
p169
S'16000000L'
p170
sS'variant'
p171
S'standard'
p172
ssS'name'
p173
S'Arduino Diecimila or Duemilanove w/ ATmega168'
p174
sS'upload'
p175
(dp176
S'protocol'
p177
S'arduino'
p178
sS'maximum_size'
p179
S'14336'
p180
sS'speed'
p181
S'19200'
p182
ssaa(lp183
S'nano328'
p184
a(dp185
g65
S'/usr/share/arduino/hardware/arduino'
p186
sS'bootloader'
p187
(dp188
S'extended_fuses'
p189
S'0x05'
p190
sS'high_fuses'
p191
S'0xDA'
p192
sS'low_fuses'
p193
S'0xFF'
p194
sS'lock_bits'
p195
S'0x0F'
p196
sS'file'
p197
S'ATmegaBOOT_168_atmega328.hex'
p198
sS'path'
p199
S'atmega'
p200
sS'unlock_bits'
p201
S'0x3F'
p202
ssS'build'
p203
(dp204
S'core'
p205
S'arduino'
p206
sS'mcu'
p207
S'atmega328p'
p208
sS'f_cpu'
p209
S'16000000L'
p210
sS'variant'
p211
S'eightanaloginputs'
p212
ssS'name'
p213
S'Arduino Nano w/ ATmega328'
p214
sS'upload'
p215
(dp216
S'protocol'
p217
S'arduino'
p218
sS'maximum_size'
p219
S'30720'
p220
sS'speed'
p221
S'57600'
p222
ssaa(lp223
S'nano'
p224
a(dp225
g65
S'/usr/share/arduino/hardware/arduino'
p226
sS'bootloader'
p227
(dp228
S'extended_fuses'
p229
S'0x00'
p230
sS'high_fuses'
p231
S'0xdd'
p232
sS'low_fuses'
p233
S'0xff'
p234
sS'lock_bits'
p235
S'0x0F'
p236
sS'file'
p237
S'ATmegaBOOT_168_diecimila.hex'
p238
sS'path'
p239
S'atmega'
p240
sS'unlock_bits'
p241
S'0x3F'
p242
ssS'build'
p243
(dp244
S'core'
p245
S'arduino'
p246
sS'mcu'
p247
S'atmega168'
p248
sS'f_cpu'
p249
S'16000000L'
p250
sS'variant'
p251
S'eightanaloginputs'
p252
ssS'name'
p253
S'Arduino Nano w/ ATmega168'
p254
sS'upload'
p255
(dp256
S'protocol'
p257
S'arduino'
p258
sS'maximum_size'
p259
S'14336'
p260
sS'speed'
p261
S'19200'
p262
ssaa(lp263
S'mega2560'
p264
a(dp265
g65
S'/usr/share/arduino/hardware/arduino'
p266
sS'bootloader'
p267
(dp268
S'extended_fuses'
p269
S'0xFD'
p270
sS'high_fuses'
p271
S'0xD8'
p272
sS'low_fuses'
p273
S'0xFF'
p274
sS'lock_bits'
p275
S'0x0F'
p276
sS'file'
p277
S'stk500boot_v2_mega2560.hex'
p278
sS'path'
p279
S'stk500v2'
p280
sS'unlock_bits'
p281
S'0x3F'
p282
ssS'build'
p283
(dp284
S'core'
p285
S'arduino'
p286
sS'mcu'
p287
S'atmega2560'
p288
sS'f_cpu'
p289
S'16000000L'
p290
sS'variant'
p291
S'mega'
p292
ssS'name'
p293
S'Arduino Mega 2560 or Mega ADK'
p294
sS'upload'
p295
(dp296
S'protocol'
p297
S'wiring'
p298
sS'maximum_size'
p299
S'258048'
p300
sS'speed'
p301
S'115200'
p302
ssaa(lp303
S'mega'
p304
a(dp305
g65
S'/usr/share/arduino/hardware/arduino'
p306
sS'bootloader'
p307
(dp308
S'extended_fuses'
p309
S'0xF5'
p310
sS'high_fuses'
p311
S'0xDA'
p312
sS'low_fuses'
p313
S'0xFF'
p314
sS'lock_bits'
p315
S'0x0F'
p316
sS'file'
p317
S'ATmegaBOOT_168_atmega1280.hex'
p318
sS'path'
p319
S'atmega'
p320
sS'unlock_bits'
p321
S'0x3F'
p322
ssS'build'
p323
(dp324
S'core'
p325
S'arduino'
p326
sS'mcu'
p327
S'atmega1280'
p328
sS'f_cpu'
p329
S'16000000L'
p330
sS'variant'
p331
S'mega'
p332
ssS'name'
p333
S'Arduino Mega (ATmega1280)'
p334
sS'upload'
p335
(dp336
S'protocol'
p337
S'arduino'
p338
sS'maximum_size'
p339
S'126976'
p340
sS'speed'
p341
S'57600'
p342
ssaa(lp343
S'leonardo'
p344
a(dp345
g65
S'/usr/share/arduino/hardware/arduino'
p346
sS'bootloader'
p347
(dp348
S'extended_fuses'
p349
S'0xcb'
p350
sS'high_fuses'
p351
S'0xd8'
p352
sS'low_fuses'
p353
S'0xff'
p354
sS'lock_bits'
p355
S'0x2F'
p356
sS'file'
p357
S'Caterina-Leonardo.hex'
p358
sS'path'
p359
S'caterina'
p360
sS'unlock_bits'
p361
S'0x3F'
p362
ssS'build'
p363
(dp364
S'core'
p365
S'arduino'
p366
sS'f_cpu'
p367
S'16000000L'
p368
sS'vid'
p369
S'0x2341'
p370
sS'pid'
p371
S'0x8036'
p372
sS'variant'
p373
S'leonardo'
p374
sS'mcu'
p375
S'atmega32u4'
p376
ssS'name'
p377
S'Arduino Leonardo'
p378
sS'upload'
p379
(dp380
S'protocol'
p381
S'avr109'
p382
sS'maximum_size'
p383
S'28672'
p384
sS'speed'
p385
S'57600'
p386
sS'disable_flushing'
p387
S'true'
p388
ssaa(lp389
S'esplora'
p390
a(dp391
g65
S'/usr/share/arduino/hardware/arduino'
p392
sS'bootloader'
p393
(dp394
S'extended_fuses'
p395
S'0xcb'
p396
sS'high_fuses'
p397
S'0xd8'
p398
sS'low_fuses'
p399
S'0xff'
p400
sS'lock_bits'
p401
S'0x2F'
p402
sS'file'
p403
S'Caterina-Esplora.hex'
p404
sS'path'
p405
S'caterina'
p406
sS'unlock_bits'
p407
S'0x3F'
p408
ssS'build'
p409
(dp410
S'core'
p411
S'arduino'
p412
sS'f_cpu'
p413
S'16000000L'
p414
sS'vid'
p415
S'0x2341'
p416
sS'pid'
p417
S'0x803C'
p418
sS'variant'
p419
S'leonardo'
p420
sS'mcu'
p421
S'atmega32u4'
p422
ssS'name'
p423
S'Arduino Esplora'
p424
sS'upload'
p425
(dp426
S'protocol'
p427
S'avr109'
p428
sS'maximum_size'
p429
S'28672'
p430
sS'speed'
p431
S'57600'
p432
sS'disable_flushing'
p433
S'true'
p434
ssaa(lp435
S'micro'
p436
a(dp437
g65
S'/usr/share/arduino/hardware/arduino'
p438
sS'bootloader'
p439
(dp440
S'extended_fuses'
p441
S'0xcb'
p442
sS'high_fuses'
p443
S'0xd8'
p444
sS'low_fuses'
p445
S'0xff'
p446
sS'lock_bits'
p447
S'0x2F'
p448
sS'file'
p449
S'Caterina-Micro.hex'
p450
sS'path'
p451
S'caterina'
p452
sS'unlock_bits'
p453
S'0x3F'
p454
ssS'build'
p455
(dp456
S'core'
p457
S'arduino'
p458
sS'f_cpu'
p459
S'16000000L'
p460
sS'vid'
p461
S'0x2341'
p462
sS'pid'
p463
S'0x8037'
p464
sS'variant'
p465
S'micro'
p466
sS'mcu'
p467
S'atmega32u4'
p468
ssS'name'
p469
S'Arduino Micro'
p470
sS'upload'
p471
(dp472
S'protocol'
p473
S'avr109'
p474
sS'maximum_size'
p475
S'28672'
p476
sS'speed'
p477
S'57600'
p478
sS'disable_flushing'
p479
S'true'
p480
ssaa(lp481
S'mini328'
p482
a(dp483
g65
S'/usr/share/arduino/hardware/arduino'
p484
sS'bootloader'
p485
(dp486
S'extended_fuses'
p487
S'0x05'
p488
sS'high_fuses'
p489
S'0xd8'
p490
sS'low_fuses'
p491
S'0xff'
p492
sS'lock_bits'
p493
S'0x0F'
p494
sS'file'
p495
S'optiboot_atmega328-Mini.hex'
p496
sS'path'
p497
S'optiboot'
p498
sS'unlock_bits'
p499
S'0x3F'
p500
ssS'build'
p501
(dp502
S'core'
p503
S'arduino'
p504
sS'mcu'
p505
S'atmega328p'
p506
sS'f_cpu'
p507
S'16000000L'
p508
sS'variant'
p509
S'eightanaloginputs'
p510
ssS'name'
p511
S'Arduino Mini w/ ATmega328'
p512
sS'upload'
p513
(dp514
S'protocol'
p515
S'arduino'
p516
sS'maximum_size'
p517
S'28672'
p518
sS'speed'
p519
S'115200'
p520
ssaa(lp521
S'mini'
p522
a(dp523
g65
S'/usr/share/arduino/hardware/arduino'
p524
sS'bootloader'
p525
(dp526
S'extended_fuses'
p527
S'0x00'
p528
sS'high_fuses'
p529
S'0xdd'
p530
sS'low_fuses'
p531
S'0xff'
p532
sS'lock_bits'
p533
S'0x0F'
p534
sS'file'
p535
S'ATmegaBOOT_168_ng.hex'
p536
sS'path'
p537
S'atmega'
p538
sS'unlock_bits'
p539
S'0x3F'
p540
ssS'build'
p541
(dp542
S'core'
p543
S'arduino'
p544
sS'mcu'
p545
S'atmega168'
p546
sS'f_cpu'
p547
S'16000000L'
p548
sS'variant'
p549
S'eightanaloginputs'
p550
ssS'name'
p551
S'Arduino Mini w/ ATmega168'
p552
sS'upload'
p553
(dp554
S'protocol'
p555
S'arduino'
p556
sS'maximum_size'
p557
S'14336'
p558
sS'speed'
p559
S'19200'
p560
ssaa(lp561
S'ethernet'
p562
a(dp563
g65
S'/usr/share/arduino/hardware/arduino'
p564
sS'bootloader'
p565
(dp566
S'extended_fuses'
p567
S'0x05'
p568
sS'high_fuses'
p569
S'0xde'
p570
sS'low_fuses'
p571
S'0xff'
p572
sS'lock_bits'
p573
S'0x0F'
p574
sS'file'
p575
S'optiboot_atmega328.hex'
p576
sS'path'
p577
S'optiboot'
p578
sS'unlock_bits'
p579
S'0x3F'
p580
ssS'build'
p581
(dp582
S'variant'
p583
S'standard'
p584
sS'mcu'
p585
S'atmega328p'
p586
sS'f_cpu'
p587
S'16000000L'
p588
sS'core'
p589
S'arduino'
p590
ssS'name'
p591
S'Arduino Ethernet'
p592
sS'upload'
p593
(dp594
S'protocol'
p595
S'arduino'
p596
sS'maximum_size'
p597
S'32256'
p598
sS'speed'
p599
S'115200'
p600
ssaa(lp601
S'fio'
p602
a(dp603
g65
S'/usr/share/arduino/hardware/arduino'
p604
sS'bootloader'
p605
(dp606
S'extended_fuses'
p607
S'0x05'
p608
sS'high_fuses'
p609
S'0xDA'
p610
sS'low_fuses'
p611
S'0xFF'
p612
sS'lock_bits'
p613
S'0x0F'
p614
sS'file'
p615
S'ATmegaBOOT_168_atmega328_pro_8MHz.hex'
p616
sS'path'
p617
S'arduino:atmega'
p618
sS'unlock_bits'
p619
S'0x3F'
p620
ssS'build'
p621
(dp622
S'core'
p623
S'arduino'
p624
sS'mcu'
p625
S'atmega328p'
p626
sS'f_cpu'
p627
S'8000000L'
p628
sS'variant'
p629
S'eightanaloginputs'
p630
ssS'name'
p631
S'Arduino Fio'
p632
sS'upload'
p633
(dp634
S'protocol'
p635
S'arduino'
p636
sS'maximum_size'
p637
S'30720'
p638
sS'speed'
p639
S'57600'
p640
ssaa(lp641
S'bt328'
p642
a(dp643
g65
S'/usr/share/arduino/hardware/arduino'
p644
sS'bootloader'
p645
(dp646
S'extended_fuses'
p647
S'0x05'
p648
sS'high_fuses'
p649
S'0xd8'
p650
sS'low_fuses'
p651
S'0xff'
p652
sS'lock_bits'
p653
S'0x0F'
p654
sS'file'
p655
S'ATmegaBOOT_168_atmega328_bt.hex'
p656
sS'path'
p657
S'bt'
p658
sS'unlock_bits'
p659
S'0x3F'
p660
ssS'build'
p661
(dp662
S'core'
p663
S'arduino'
p664
sS'mcu'
p665
S'atmega328p'
p666
sS'f_cpu'
p667
S'16000000L'
p668
sS'variant'
p669
S'eightanaloginputs'
p670
ssS'name'
p671
S'Arduino BT w/ ATmega328'
p672
sS'upload'
p673
(dp674
S'protocol'
p675
S'arduino'
p676
sS'maximum_size'
p677
S'28672'
p678
sS'speed'
p679
S'19200'
p680
sS'disable_flushing'
p681
S'true'
p682
ssaa(lp683
S'bt'
p684
a(dp685
g65
S'/usr/share/arduino/hardware/arduino'
p686
sS'bootloader'
p687
(dp688
S'extended_fuses'
p689
S'0x00'
p690
sS'high_fuses'
p691
S'0xdd'
p692
sS'low_fuses'
p693
S'0xff'
p694
sS'lock_bits'
p695
S'0x0F'
p696
sS'file'
p697
S'ATmegaBOOT_168.hex'
p698
sS'path'
p699
S'bt'
p700
sS'unlock_bits'
p701
S'0x3F'
p702
ssS'build'
p703
(dp704
S'core'
p705
S'arduino'
p706
sS'mcu'
p707
S'atmega168'
p708
sS'f_cpu'
p709
S'16000000L'
p710
sS'variant'
p711
S'eightanaloginputs'
p712
ssS'name'
p713
S'Arduino BT w/ ATmega168'
p714
sS'upload'
p715
(dp716
S'protocol'
p717
S'arduino'
p718
sS'maximum_size'
p719
S'14336'
p720
sS'speed'
p721
S'19200'
p722
sS'disable_flushing'
p723
S'true'
p724
ssaa(lp725
S'LilyPadUSB'
p726
a(dp727
g65
S'/usr/share/arduino/hardware/arduino'
p728
sS'bootloader'
p729
(dp730
S'extended_fuses'
p731
S'0xce'
p732
sS'high_fuses'
p733
S'0xd8'
p734
sS'low_fuses'
p735
S'0xff'
p736
sS'lock_bits'
p737
S'0x2F'
p738
sS'file'
p739
S'Caterina-LilyPadUSB.hex'
p740
sS'path'
p741
S'caterina-LilyPadUSB'
p742
sS'unlock_bits'
p743
S'0x3F'
p744
ssS'build'
p745
(dp746
S'core'
p747
S'arduino'
p748
sS'f_cpu'
p749
S'8000000L'
p750
sS'vid'
p751
S'0x1B4F'
p752
sS'pid'
p753
S'0x9208'
p754
sS'variant'
p755
S'leonardo'
p756
sS'mcu'
p757
S'atmega32u4'
p758
ssS'name'
p759
S'LilyPad Arduino USB'
p760
sS'upload'
p761
(dp762
S'protocol'
p763
S'avr109'
p764
sS'maximum_size'
p765
S'28672'
p766
sS'speed'
p767
S'57600'
p768
sS'disable_flushing'
p769
S'true'
p770
ssaa(lp771
S'lilypad328'
p772
a(dp773
g65
S'/usr/share/arduino/hardware/arduino'
p774
sS'bootloader'
p775
(dp776
S'extended_fuses'
p777
S'0x05'
p778
sS'high_fuses'
p779
S'0xDA'
p780
sS'low_fuses'
p781
S'0xFF'
p782
sS'lock_bits'
p783
S'0x0F'
p784
sS'file'
p785
S'ATmegaBOOT_168_atmega328_pro_8MHz.hex'
p786
sS'path'
p787
S'atmega'
p788
sS'unlock_bits'
p789
S'0x3F'
p790
ssS'build'
p791
(dp792
S'core'
p793
S'arduino'
p794
sS'mcu'
p795
S'atmega328p'
p796
sS'f_cpu'
p797
S'8000000L'
p798
sS'variant'
p799
S'standard'
p800
ssS'name'
p801
S'LilyPad Arduino w/ ATmega328'
p802
sS'upload'
p803
(dp804
S'protocol'
p805
S'arduino'
p806
sS'maximum_size'
p807
S'30720'
p808
sS'speed'
p809
S'57600'
p810
ssaa(lp811
S'lilypad'
p812
a(dp813
g65
S'/usr/share/arduino/hardware/arduino'
p814
sS'bootloader'
p815
(dp816
S'extended_fuses'
p817
S'0x00'
p818
sS'high_fuses'
p819
S'0xdd'
p820
sS'low_fuses'
p821
S'0xe2'
p822
sS'lock_bits'
p823
S'0x0F'
p824
sS'file'
p825
S'LilyPadBOOT_168.hex'
p826
sS'path'
p827
S'lilypad'
p828
sS'unlock_bits'
p829
S'0x3F'
p830
ssS'build'
p831
(dp832
S'core'
p833
S'arduino'
p834
sS'mcu'
p835
S'atmega168'
p836
sS'f_cpu'
p837
S'8000000L'
p838
sS'variant'
p839
S'standard'
p840
ssS'name'
p841
S'LilyPad Arduino w/ ATmega168'
p842
sS'upload'
p843
(dp844
S'protocol'
p845
S'arduino'
p846
sS'maximum_size'
p847
S'14336'
p848
sS'speed'
p849
S'19200'
p850
ssaa(lp851
S'pro5v328'
p852
a(dp853
g65
S'/usr/share/arduino/hardware/arduino'
p854
sS'bootloader'
p855
(dp856
S'extended_fuses'
p857
S'0x05'
p858
sS'high_fuses'
p859
S'0xDA'
p860
sS'low_fuses'
p861
S'0xFF'
p862
sS'lock_bits'
p863
S'0x0F'
p864
sS'file'
p865
S'ATmegaBOOT_168_atmega328.hex'
p866
sS'path'
p867
S'atmega'
p868
sS'unlock_bits'
p869
S'0x3F'
p870
ssS'build'
p871
(dp872
S'core'
p873
S'arduino'
p874
sS'mcu'
p875
S'atmega328p'
p876
sS'f_cpu'
p877
S'16000000L'
p878
sS'variant'
p879
S'standard'
p880
ssS'name'
p881
S'Arduino Pro or Pro Mini (5V, 16 MHz) w/ ATmega328'
p882
sS'upload'
p883
(dp884
S'protocol'
p885
S'arduino'
p886
sS'maximum_size'
p887
S'30720'
p888
sS'speed'
p889
S'57600'
p890
ssaa(lp891
S'pro5v'
p892
a(dp893
g65
S'/usr/share/arduino/hardware/arduino'
p894
sS'bootloader'
p895
(dp896
S'extended_fuses'
p897
S'0x00'
p898
sS'high_fuses'
p899
S'0xdd'
p900
sS'low_fuses'
p901
S'0xff'
p902
sS'lock_bits'
p903
S'0x0F'
p904
sS'file'
p905
S'ATmegaBOOT_168_diecimila.hex'
p906
sS'path'
p907
S'atmega'
p908
sS'unlock_bits'
p909
S'0x3F'
p910
ssS'build'
p911
(dp912
S'core'
p913
S'arduino'
p914
sS'mcu'
p915
S'atmega168'
p916
sS'f_cpu'
p917
S'16000000L'
p918
sS'variant'
p919
S'standard'
p920
ssS'name'
p921
S'Arduino Pro or Pro Mini (5V, 16 MHz) w/ ATmega168'
p922
sS'upload'
p923
(dp924
S'protocol'
p925
S'arduino'
p926
sS'maximum_size'
p927
S'14336'
p928
sS'speed'
p929
S'19200'
p930
ssaa(lp931
S'pro328'
p932
a(dp933
g65
S'/usr/share/arduino/hardware/arduino'
p934
sS'bootloader'
p935
(dp936
S'extended_fuses'
p937
S'0x05'
p938
sS'high_fuses'
p939
S'0xDA'
p940
sS'low_fuses'
p941
S'0xFF'
p942
sS'lock_bits'
p943
S'0x0F'
p944
sS'file'
p945
S'ATmegaBOOT_168_atmega328_pro_8MHz.hex'
p946
sS'path'
p947
S'atmega'
p948
sS'unlock_bits'
p949
S'0x3F'
p950
ssS'build'
p951
(dp952
S'core'
p953
S'arduino'
p954
sS'mcu'
p955
S'atmega328p'
p956
sS'f_cpu'
p957
S'8000000L'
p958
sS'variant'
p959
S'standard'
p960
ssS'name'
p961
S'Arduino Pro or Pro Mini (3.3V, 8 MHz) w/ ATmega328'
p962
sS'upload'
p963
(dp964
S'protocol'
p965
S'arduino'
p966
sS'maximum_size'
p967
S'30720'
p968
sS'speed'
p969
S'57600'
p970
ssaa(lp971
S'pro'
p972
a(dp973
g65
S'/usr/share/arduino/hardware/arduino'
p974
sS'bootloader'
p975
(dp976
S'extended_fuses'
p977
S'0x00'
p978
sS'high_fuses'
p979
S'0xdd'
p980
sS'low_fuses'
p981
S'0xc6'
p982
sS'lock_bits'
p983
S'0x0F'
p984
sS'file'
p985
S'ATmegaBOOT_168_pro_8MHz.hex'
p986
sS'path'
p987
S'atmega'
p988
sS'unlock_bits'
p989
S'0x3F'
p990
ssS'build'
p991
(dp992
S'core'
p993
S'arduino'
p994
sS'mcu'
p995
S'atmega168'
p996
sS'f_cpu'
p997
S'8000000L'
p998
sS'variant'
p999
S'standard'
p1000
ssS'name'
p1001
S'Arduino Pro or Pro Mini (3.3V, 8 MHz) w/ ATmega168'
p1002
sS'upload'
p1003
(dp1004
S'protocol'
p1005
S'arduino'
p1006
sS'maximum_size'
p1007
S'14336'
p1008
sS'speed'
p1009
S'19200'
p1010
ssaa(lp1011
S'atmega168'
p1012
a(dp1013
g65
S'/usr/share/arduino/hardware/arduino'
p1014
sS'bootloader'
p1015
(dp1016
S'extended_fuses'
p1017
S'0x00'
p1018
sS'high_fuses'
p1019
S'0xdd'
p1020
sS'low_fuses'
p1021
S'0xff'
p1022
sS'lock_bits'
p1023
S'0x0F'
p1024
sS'file'
p1025
S'ATmegaBOOT_168_ng.hex'
p1026
sS'path'
p1027
S'atmega'
p1028
sS'unlock_bits'
p1029
S'0x3F'
p1030
ssS'build'
p1031
(dp1032
S'core'
p1033
S'arduino'
p1034
sS'mcu'
p1035
S'atmega168'
p1036
sS'f_cpu'
p1037
S'16000000L'
p1038
sS'variant'
p1039
S'standard'
p1040
ssS'name'
p1041
S'Arduino NG or older w/ ATmega168'
p1042
sS'upload'
p1043
(dp1044
S'protocol'
p1045
S'arduino'
p1046
sS'maximum_size'
p1047
S'14336'
p1048
sS'speed'
p1049
S'19200'
p1050
ssaa(lp1051
S'atmega8'
p1052
a(dp1053
g65
S'/usr/share/arduino/hardware/arduino'
p1054
sS'bootloader'
p1055
(dp1056
S'high_fuses'
p1057
S'0xca'
p1058
sS'low_fuses'
p1059
S'0xdf'
p1060
sS'lock_bits'
p1061
S'0x0F'
p1062
sS'file'
p1063
S'ATmegaBOOT-prod-firmware-2009-11-07.hex'
p1064
sS'path'
p1065
S'atmega8'
p1066
sS'unlock_bits'
p1067
S'0x3F'
p1068
ssS'build'
p1069
(dp1070
S'core'
p1071
S'arduino'
p1072
sS'mcu'
p1073
S'atmega8'
p1074
sS'f_cpu'
p1075
S'16000000L'
p1076
sS'variant'
p1077
S'standard'
p1078
ssS'name'
p1079
S'Arduino NG or older w/ ATmega8'
p1080
sS'upload'
p1081
(dp1082
S'protocol'
p1083
S'arduino'
p1084
sS'maximum_size'
p1085
S'7168'
p1086
sS'speed'
p1087
S'19200'
p1088
ssaa(lp1089
S'robotControl'
p1090
a(dp1091
g65
S'/usr/share/arduino/hardware/arduino'
p1092
sS'bootloader'
p1093
(dp1094
S'extended_fuses'
p1095
S'0xcb'
p1096
sS'high_fuses'
p1097
S'0xd8'
p1098
sS'low_fuses'
p1099
S'0xff'
p1100
sS'lock_bits'
p1101
S'0x2F'
p1102
sS'file'
p1103
S'Caterina-Robot-Control.hex'
p1104
sS'path'
p1105
S'caterina-Arduino_Robot'
p1106
sS'unlock_bits'
p1107
S'0x3F'
p1108
ssS'build'
p1109
(dp1110
S'core'
p1111
S'robot'
p1112
sS'f_cpu'
p1113
S'16000000L'
p1114
sS'vid'
p1115
S'0x2341'
p1116
sS'pid'
p1117
S'0x8038'
p1118
sS'variant'
p1119
S'robot_control'
p1120
sS'mcu'
p1121
S'atmega32u4'
p1122
ssS'name'
p1123
S'Arduino Robot Control'
p1124
sS'upload'
p1125
(dp1126
S'protocol'
p1127
S'avr109'
p1128
sS'maximum_size'
p1129
S'28672'
p1130
sS'speed'
p1131
S'57600'
p1132
sS'disable_flushing'
p1133
S'true'
p1134
ssaa(lp1135
S'robotMotor'
p1136
a(dp1137
g65
S'/usr/share/arduino/hardware/arduino'
p1138
sS'bootloader'
p1139
(dp1140
S'extended_fuses'
p1141
S'0xcb'
p1142
sS'high_fuses'
p1143
S'0xd8'
p1144
sS'low_fuses'
p1145
S'0xff'
p1146
sS'lock_bits'
p1147
S'0x2F'
p1148
sS'file'
p1149
S'Caterina-Robot-Motor.hex'
p1150
sS'path'
p1151
S'caterina-Arduino_Robot'
p1152
sS'unlock_bits'
p1153
S'0x3F'
p1154
ssS'build'
p1155
(dp1156
S'core'
p1157
S'robot'
p1158
sS'f_cpu'
p1159
S'16000000L'
p1160
sS'vid'
p1161
S'0x2341'
p1162
sS'pid'
p1163
S'0x8039'
p1164
sS'variant'
p1165
S'robot_motor'
p1166
sS'mcu'
p1167
S'atmega32u4'
p1168
ssS'name'
p1169
S'Arduino Robot Motor'
p1170
sS'upload'
p1171
(dp1172
S'protocol'
p1173
S'avr109'
p1174
sS'maximum_size'
p1175
S'28672'
p1176
sS'speed'
p1177
S'57600'
p1178
sS'disable_flushing'
p1179
S'true'
p1180
ssaatp1181
Rp1182
(dp1183
S'default'
p1184
S'uno'
p1185
sbtp1186
a(S'used_libs'
p1187
(lp1188
S'lib/aJson'
p1189
aS'/usr/share/arduino/hardware/arduino/cores/arduino'
p1190
atp1191
a(S'make'
p1192
S'/usr/share/arduino/hardware/tools/avr/bin/make'
p1193
tp1194
a(S'build_dir'
p1195
S'.build/uno'
p1196
tp1197
a(S'cc'
p1198
S'/usr/share/arduino/hardware/tools/avr/bin/avr-gcc'
p1199
tp1200
a(S'cflags'
p1201
g2
(g3
g4
(lp1202
tp1203
Rp1204
tp1205
a(S'cxxflags'
p1206
g2
(g3
g4
(lp1207
S'-fno-exceptions'
p1208
atp1209
Rp1210
tp1211
a(S'arduino_variants_dir'
p1212
S'/usr/share/arduino/hardware/arduino/variants'
p1213
tp1214
a(S'stty'
p1215
S'/bin/stty'
p1216
tp1217
a(S'version.txt'
p1218
S'/usr/share/arduino/lib/version.txt'
p1219
tp1220
a(S'arduino_core_dir'
p1221
g1190
tp1222
a(S'boards.txt'
p1223
(lp1224
S'/usr/share/arduino/hardware/arduino/boards.txt'
p1225
atp1226
a(S'avrdude.conf'
p1227
S'/usr/share/arduino/hardware/tools/avrdude.conf'
p1228
tp1229
a(S'deps'
p1230
g2
(g3
g4
(lp1231
S'.build/uno/src/dependencies.d'
p1232
aS'.build/uno/arduino/dependencies.d'
p1233
aS'.build/uno/aJson/dependencies.d'
p1234
atp1235
Rp1236
tp1237
a.