(lp0
(S'cppflags'
p1
ccopy_reg
_reconstructor
p2
(cino.utils
SpaceList
p3
c__builtin__
list
p4
(lp5
S'-mmcu=atmega328p'
p6
aS'-DF_CPU=16000000L'
p7
aS'-DARDUINO=105'
p8
aS'-I/usr/share/arduino/hardware/arduino/cores/arduino'
p9
aS'-ffunction-sections'
p10
aS'-fdata-sections'
p11
aS'-g'
p12
aS'-Os'
p13
aS'-w'
p14
aS'-I/usr/share/arduino/hardware/arduino/variants/standard'
p15
aS'-Ilib/aJson'
p16
aS'-Ilib/aJson/utility'
p17
aS'-I/usr/share/arduino/hardware/arduino/cores/arduino'
p18
aS'-I/usr/share/arduino/hardware/arduino/cores/arduino/avr-libc'
p19
atp20
Rp21
tp22
a(S'cxx'
p23
S'/usr/share/arduino/hardware/tools/avr/bin/avr-g++'
p24
tp25
a(S'arduino_libraries_dir'
p26
S'/usr/share/arduino/libraries'
p27
tp28
a(S'avrdude'
p29
S'/usr/share/arduino/hardware/tools/avrdude'
p30
tp31
a(S'ar'
p32
S'/usr/share/arduino/hardware/tools/avr/bin/avr-ar'
p33
tp34
a(S'names'
p35
(dp36
S'cpp'
p37
S'%s.cpp'
p38
sS'obj'
p39
S'%s.o'
p40
sS'lib'
p41
S'lib%s.a'
p42
sS'deps'
p43
S'%s.d'
p44
stp45
a(S'ldflags'
p46
g2
(g3
g4
(lp47
g6
aS'-Wl,-Os'
p48
aS'-Wl,--gc-sections'
p49
atp50
Rp51
tp52
a(S'arduino_lib_version'
p53
g2
(cino.environment
Version
p54
c__builtin__
tuple
p55
(I1
I0
I5
tp56
tp57
Rp58
tp59
a(S'objcopy'
p60
S'/usr/share/arduino/hardware/tools/avr/bin/avr-objcopy'
p61
tp62
a(S'board_models'
p63
cino.environment
BoardModels
p64
((lp65
(lp66
S'uno'
p67
a(dp68
S'_coredir'
p69
S'/usr/share/arduino/hardware/arduino'
p70
sS'bootloader'
p71
(dp72
S'extended_fuses'
p73
S'0x05'
p74
sS'high_fuses'
p75
S'0xde'
p76
sS'low_fuses'
p77
S'0xff'
p78
sS'lock_bits'
p79
S'0x0F'
p80
sS'file'
p81
S'optiboot_atmega328.hex'
p82
sS'path'
p83
S'optiboot'
p84
sS'unlock_bits'
p85
S'0x3F'
p86
ssS'upload'
p87
(dp88
S'protocol'
p89
S'arduino'
p90
sS'maximum_size'
p91
S'32256'
p92
sS'speed'
p93
S'115200'
p94
ssS'name'
p95
S'Arduino Uno'
p96
sS'build'
p97
(dp98
S'core'
p99
S'arduino'
p100
sS'mcu'
p101
S'atmega328p'
p102
sS'f_cpu'
p103
S'16000000L'
p104
sS'variant'
p105
S'standard'
p106
ssaa(lp107
S'atmega328'
p108
a(dp109
g69
S'/usr/share/arduino/hardware/arduino'
p110
sS'bootloader'
p111
(dp112
S'extended_fuses'
p113
S'0x05'
p114
sS'high_fuses'
p115
S'0xDA'
p116
sS'low_fuses'
p117
S'0xFF'
p118
sS'lock_bits'
p119
S'0x0F'
p120
sS'file'
p121
S'ATmegaBOOT_168_atmega328.hex'
p122
sS'path'
p123
S'atmega'
p124
sS'unlock_bits'
p125
S'0x3F'
p126
ssS'upload'
p127
(dp128
S'protocol'
p129
S'arduino'
p130
sS'maximum_size'
p131
S'30720'
p132
sS'speed'
p133
S'57600'
p134
ssS'name'
p135
S'Arduino Duemilanove w/ ATmega328'
p136
sS'build'
p137
(dp138
S'core'
p139
S'arduino'
p140
sS'mcu'
p141
S'atmega328p'
p142
sS'f_cpu'
p143
S'16000000L'
p144
sS'variant'
p145
S'standard'
p146
ssaa(lp147
S'diecimila'
p148
a(dp149
g69
S'/usr/share/arduino/hardware/arduino'
p150
sS'bootloader'
p151
(dp152
S'extended_fuses'
p153
S'0x00'
p154
sS'high_fuses'
p155
S'0xdd'
p156
sS'low_fuses'
p157
S'0xff'
p158
sS'lock_bits'
p159
S'0x0F'
p160
sS'file'
p161
S'ATmegaBOOT_168_diecimila.hex'
p162
sS'path'
p163
S'atmega'
p164
sS'unlock_bits'
p165
S'0x3F'
p166
ssS'upload'
p167
(dp168
S'protocol'
p169
S'arduino'
p170
sS'maximum_size'
p171
S'14336'
p172
sS'speed'
p173
S'19200'
p174
ssS'name'
p175
S'Arduino Diecimila or Duemilanove w/ ATmega168'
p176
sS'build'
p177
(dp178
S'core'
p179
S'arduino'
p180
sS'mcu'
p181
S'atmega168'
p182
sS'f_cpu'
p183
S'16000000L'
p184
sS'variant'
p185
S'standard'
p186
ssaa(lp187
S'nano328'
p188
a(dp189
g69
S'/usr/share/arduino/hardware/arduino'
p190
sS'bootloader'
p191
(dp192
S'extended_fuses'
p193
S'0x05'
p194
sS'high_fuses'
p195
S'0xDA'
p196
sS'low_fuses'
p197
S'0xFF'
p198
sS'lock_bits'
p199
S'0x0F'
p200
sS'file'
p201
S'ATmegaBOOT_168_atmega328.hex'
p202
sS'path'
p203
S'atmega'
p204
sS'unlock_bits'
p205
S'0x3F'
p206
ssS'upload'
p207
(dp208
S'protocol'
p209
S'arduino'
p210
sS'maximum_size'
p211
S'30720'
p212
sS'speed'
p213
S'57600'
p214
ssS'name'
p215
S'Arduino Nano w/ ATmega328'
p216
sS'build'
p217
(dp218
S'core'
p219
S'arduino'
p220
sS'mcu'
p221
S'atmega328p'
p222
sS'f_cpu'
p223
S'16000000L'
p224
sS'variant'
p225
S'eightanaloginputs'
p226
ssaa(lp227
S'nano'
p228
a(dp229
g69
S'/usr/share/arduino/hardware/arduino'
p230
sS'bootloader'
p231
(dp232
S'extended_fuses'
p233
S'0x00'
p234
sS'high_fuses'
p235
S'0xdd'
p236
sS'low_fuses'
p237
S'0xff'
p238
sS'lock_bits'
p239
S'0x0F'
p240
sS'file'
p241
S'ATmegaBOOT_168_diecimila.hex'
p242
sS'path'
p243
S'atmega'
p244
sS'unlock_bits'
p245
S'0x3F'
p246
ssS'upload'
p247
(dp248
S'protocol'
p249
S'arduino'
p250
sS'maximum_size'
p251
S'14336'
p252
sS'speed'
p253
S'19200'
p254
ssS'name'
p255
S'Arduino Nano w/ ATmega168'
p256
sS'build'
p257
(dp258
S'core'
p259
S'arduino'
p260
sS'mcu'
p261
S'atmega168'
p262
sS'f_cpu'
p263
S'16000000L'
p264
sS'variant'
p265
S'eightanaloginputs'
p266
ssaa(lp267
S'mega2560'
p268
a(dp269
g69
S'/usr/share/arduino/hardware/arduino'
p270
sS'bootloader'
p271
(dp272
S'extended_fuses'
p273
S'0xFD'
p274
sS'high_fuses'
p275
S'0xD8'
p276
sS'low_fuses'
p277
S'0xFF'
p278
sS'lock_bits'
p279
S'0x0F'
p280
sS'file'
p281
S'stk500boot_v2_mega2560.hex'
p282
sS'path'
p283
S'stk500v2'
p284
sS'unlock_bits'
p285
S'0x3F'
p286
ssS'upload'
p287
(dp288
S'protocol'
p289
S'wiring'
p290
sS'maximum_size'
p291
S'258048'
p292
sS'speed'
p293
S'115200'
p294
ssS'name'
p295
S'Arduino Mega 2560 or Mega ADK'
p296
sS'build'
p297
(dp298
S'core'
p299
S'arduino'
p300
sS'mcu'
p301
S'atmega2560'
p302
sS'f_cpu'
p303
S'16000000L'
p304
sS'variant'
p305
S'mega'
p306
ssaa(lp307
S'mega'
p308
a(dp309
g69
S'/usr/share/arduino/hardware/arduino'
p310
sS'bootloader'
p311
(dp312
S'extended_fuses'
p313
S'0xF5'
p314
sS'high_fuses'
p315
S'0xDA'
p316
sS'low_fuses'
p317
S'0xFF'
p318
sS'lock_bits'
p319
S'0x0F'
p320
sS'file'
p321
S'ATmegaBOOT_168_atmega1280.hex'
p322
sS'path'
p323
S'atmega'
p324
sS'unlock_bits'
p325
S'0x3F'
p326
ssS'upload'
p327
(dp328
S'protocol'
p329
S'arduino'
p330
sS'maximum_size'
p331
S'126976'
p332
sS'speed'
p333
S'57600'
p334
ssS'name'
p335
S'Arduino Mega (ATmega1280)'
p336
sS'build'
p337
(dp338
S'core'
p339
S'arduino'
p340
sS'mcu'
p341
S'atmega1280'
p342
sS'f_cpu'
p343
S'16000000L'
p344
sS'variant'
p345
S'mega'
p346
ssaa(lp347
S'leonardo'
p348
a(dp349
g69
S'/usr/share/arduino/hardware/arduino'
p350
sS'bootloader'
p351
(dp352
S'extended_fuses'
p353
S'0xcb'
p354
sS'high_fuses'
p355
S'0xd8'
p356
sS'low_fuses'
p357
S'0xff'
p358
sS'lock_bits'
p359
S'0x2F'
p360
sS'file'
p361
S'Caterina-Leonardo.hex'
p362
sS'path'
p363
S'caterina'
p364
sS'unlock_bits'
p365
S'0x3F'
p366
ssS'upload'
p367
(dp368
S'protocol'
p369
S'avr109'
p370
sS'maximum_size'
p371
S'28672'
p372
sS'speed'
p373
S'57600'
p374
sS'disable_flushing'
p375
S'true'
p376
ssS'name'
p377
S'Arduino Leonardo'
p378
sS'build'
p379
(dp380
S'core'
p381
S'arduino'
p382
sS'f_cpu'
p383
S'16000000L'
p384
sS'vid'
p385
S'0x2341'
p386
sS'pid'
p387
S'0x8036'
p388
sS'variant'
p389
S'leonardo'
p390
sS'mcu'
p391
S'atmega32u4'
p392
ssaa(lp393
S'esplora'
p394
a(dp395
g69
S'/usr/share/arduino/hardware/arduino'
p396
sS'bootloader'
p397
(dp398
S'extended_fuses'
p399
S'0xcb'
p400
sS'high_fuses'
p401
S'0xd8'
p402
sS'low_fuses'
p403
S'0xff'
p404
sS'lock_bits'
p405
S'0x2F'
p406
sS'file'
p407
S'Caterina-Esplora.hex'
p408
sS'path'
p409
S'caterina'
p410
sS'unlock_bits'
p411
S'0x3F'
p412
ssS'upload'
p413
(dp414
S'protocol'
p415
S'avr109'
p416
sS'maximum_size'
p417
S'28672'
p418
sS'speed'
p419
S'57600'
p420
sS'disable_flushing'
p421
S'true'
p422
ssS'name'
p423
S'Arduino Esplora'
p424
sS'build'
p425
(dp426
S'core'
p427
S'arduino'
p428
sS'f_cpu'
p429
S'16000000L'
p430
sS'vid'
p431
S'0x2341'
p432
sS'pid'
p433
S'0x803C'
p434
sS'variant'
p435
S'leonardo'
p436
sS'mcu'
p437
S'atmega32u4'
p438
ssaa(lp439
S'micro'
p440
a(dp441
g69
S'/usr/share/arduino/hardware/arduino'
p442
sS'bootloader'
p443
(dp444
S'extended_fuses'
p445
S'0xcb'
p446
sS'high_fuses'
p447
S'0xd8'
p448
sS'low_fuses'
p449
S'0xff'
p450
sS'lock_bits'
p451
S'0x2F'
p452
sS'file'
p453
S'Caterina-Micro.hex'
p454
sS'path'
p455
S'caterina'
p456
sS'unlock_bits'
p457
S'0x3F'
p458
ssS'upload'
p459
(dp460
S'protocol'
p461
S'avr109'
p462
sS'maximum_size'
p463
S'28672'
p464
sS'speed'
p465
S'57600'
p466
sS'disable_flushing'
p467
S'true'
p468
ssS'name'
p469
S'Arduino Micro'
p470
sS'build'
p471
(dp472
S'core'
p473
S'arduino'
p474
sS'f_cpu'
p475
S'16000000L'
p476
sS'vid'
p477
S'0x2341'
p478
sS'pid'
p479
S'0x8037'
p480
sS'variant'
p481
S'micro'
p482
sS'mcu'
p483
S'atmega32u4'
p484
ssaa(lp485
S'mini328'
p486
a(dp487
g69
S'/usr/share/arduino/hardware/arduino'
p488
sS'bootloader'
p489
(dp490
S'extended_fuses'
p491
S'0x05'
p492
sS'high_fuses'
p493
S'0xd8'
p494
sS'low_fuses'
p495
S'0xff'
p496
sS'lock_bits'
p497
S'0x0F'
p498
sS'file'
p499
S'optiboot_atmega328-Mini.hex'
p500
sS'path'
p501
S'optiboot'
p502
sS'unlock_bits'
p503
S'0x3F'
p504
ssS'upload'
p505
(dp506
S'protocol'
p507
S'arduino'
p508
sS'maximum_size'
p509
S'28672'
p510
sS'speed'
p511
S'115200'
p512
ssS'name'
p513
S'Arduino Mini w/ ATmega328'
p514
sS'build'
p515
(dp516
S'core'
p517
S'arduino'
p518
sS'mcu'
p519
S'atmega328p'
p520
sS'f_cpu'
p521
S'16000000L'
p522
sS'variant'
p523
S'eightanaloginputs'
p524
ssaa(lp525
S'mini'
p526
a(dp527
g69
S'/usr/share/arduino/hardware/arduino'
p528
sS'bootloader'
p529
(dp530
S'extended_fuses'
p531
S'0x00'
p532
sS'high_fuses'
p533
S'0xdd'
p534
sS'low_fuses'
p535
S'0xff'
p536
sS'lock_bits'
p537
S'0x0F'
p538
sS'file'
p539
S'ATmegaBOOT_168_ng.hex'
p540
sS'path'
p541
S'atmega'
p542
sS'unlock_bits'
p543
S'0x3F'
p544
ssS'upload'
p545
(dp546
S'protocol'
p547
S'arduino'
p548
sS'maximum_size'
p549
S'14336'
p550
sS'speed'
p551
S'19200'
p552
ssS'name'
p553
S'Arduino Mini w/ ATmega168'
p554
sS'build'
p555
(dp556
S'core'
p557
S'arduino'
p558
sS'mcu'
p559
S'atmega168'
p560
sS'f_cpu'
p561
S'16000000L'
p562
sS'variant'
p563
S'eightanaloginputs'
p564
ssaa(lp565
S'ethernet'
p566
a(dp567
g69
S'/usr/share/arduino/hardware/arduino'
p568
sS'bootloader'
p569
(dp570
S'extended_fuses'
p571
S'0x05'
p572
sS'high_fuses'
p573
S'0xde'
p574
sS'low_fuses'
p575
S'0xff'
p576
sS'lock_bits'
p577
S'0x0F'
p578
sS'file'
p579
S'optiboot_atmega328.hex'
p580
sS'path'
p581
S'optiboot'
p582
sS'unlock_bits'
p583
S'0x3F'
p584
ssS'upload'
p585
(dp586
S'protocol'
p587
S'arduino'
p588
sS'maximum_size'
p589
S'32256'
p590
sS'speed'
p591
S'115200'
p592
ssS'name'
p593
S'Arduino Ethernet'
p594
sS'build'
p595
(dp596
S'variant'
p597
S'standard'
p598
sS'mcu'
p599
S'atmega328p'
p600
sS'f_cpu'
p601
S'16000000L'
p602
sS'core'
p603
S'arduino'
p604
ssaa(lp605
S'fio'
p606
a(dp607
g69
S'/usr/share/arduino/hardware/arduino'
p608
sS'bootloader'
p609
(dp610
S'extended_fuses'
p611
S'0x05'
p612
sS'high_fuses'
p613
S'0xDA'
p614
sS'low_fuses'
p615
S'0xFF'
p616
sS'lock_bits'
p617
S'0x0F'
p618
sS'file'
p619
S'ATmegaBOOT_168_atmega328_pro_8MHz.hex'
p620
sS'path'
p621
S'arduino:atmega'
p622
sS'unlock_bits'
p623
S'0x3F'
p624
ssS'upload'
p625
(dp626
S'protocol'
p627
S'arduino'
p628
sS'maximum_size'
p629
S'30720'
p630
sS'speed'
p631
S'57600'
p632
ssS'name'
p633
S'Arduino Fio'
p634
sS'build'
p635
(dp636
S'core'
p637
S'arduino'
p638
sS'mcu'
p639
S'atmega328p'
p640
sS'f_cpu'
p641
S'8000000L'
p642
sS'variant'
p643
S'eightanaloginputs'
p644
ssaa(lp645
S'bt328'
p646
a(dp647
g69
S'/usr/share/arduino/hardware/arduino'
p648
sS'bootloader'
p649
(dp650
S'extended_fuses'
p651
S'0x05'
p652
sS'high_fuses'
p653
S'0xd8'
p654
sS'low_fuses'
p655
S'0xff'
p656
sS'lock_bits'
p657
S'0x0F'
p658
sS'file'
p659
S'ATmegaBOOT_168_atmega328_bt.hex'
p660
sS'path'
p661
S'bt'
p662
sS'unlock_bits'
p663
S'0x3F'
p664
ssS'upload'
p665
(dp666
S'protocol'
p667
S'arduino'
p668
sS'maximum_size'
p669
S'28672'
p670
sS'speed'
p671
S'19200'
p672
sS'disable_flushing'
p673
S'true'
p674
ssS'name'
p675
S'Arduino BT w/ ATmega328'
p676
sS'build'
p677
(dp678
S'core'
p679
S'arduino'
p680
sS'mcu'
p681
S'atmega328p'
p682
sS'f_cpu'
p683
S'16000000L'
p684
sS'variant'
p685
S'eightanaloginputs'
p686
ssaa(lp687
S'bt'
p688
a(dp689
g69
S'/usr/share/arduino/hardware/arduino'
p690
sS'bootloader'
p691
(dp692
S'extended_fuses'
p693
S'0x00'
p694
sS'high_fuses'
p695
S'0xdd'
p696
sS'low_fuses'
p697
S'0xff'
p698
sS'lock_bits'
p699
S'0x0F'
p700
sS'file'
p701
S'ATmegaBOOT_168.hex'
p702
sS'path'
p703
S'bt'
p704
sS'unlock_bits'
p705
S'0x3F'
p706
ssS'upload'
p707
(dp708
S'protocol'
p709
S'arduino'
p710
sS'maximum_size'
p711
S'14336'
p712
sS'speed'
p713
S'19200'
p714
sS'disable_flushing'
p715
S'true'
p716
ssS'name'
p717
S'Arduino BT w/ ATmega168'
p718
sS'build'
p719
(dp720
S'core'
p721
S'arduino'
p722
sS'mcu'
p723
S'atmega168'
p724
sS'f_cpu'
p725
S'16000000L'
p726
sS'variant'
p727
S'eightanaloginputs'
p728
ssaa(lp729
S'LilyPadUSB'
p730
a(dp731
g69
S'/usr/share/arduino/hardware/arduino'
p732
sS'bootloader'
p733
(dp734
S'extended_fuses'
p735
S'0xce'
p736
sS'high_fuses'
p737
S'0xd8'
p738
sS'low_fuses'
p739
S'0xff'
p740
sS'lock_bits'
p741
S'0x2F'
p742
sS'file'
p743
S'Caterina-LilyPadUSB.hex'
p744
sS'path'
p745
S'caterina-LilyPadUSB'
p746
sS'unlock_bits'
p747
S'0x3F'
p748
ssS'upload'
p749
(dp750
S'protocol'
p751
S'avr109'
p752
sS'maximum_size'
p753
S'28672'
p754
sS'speed'
p755
S'57600'
p756
sS'disable_flushing'
p757
S'true'
p758
ssS'name'
p759
S'LilyPad Arduino USB'
p760
sS'build'
p761
(dp762
S'core'
p763
S'arduino'
p764
sS'f_cpu'
p765
S'8000000L'
p766
sS'vid'
p767
S'0x1B4F'
p768
sS'pid'
p769
S'0x9208'
p770
sS'variant'
p771
S'leonardo'
p772
sS'mcu'
p773
S'atmega32u4'
p774
ssaa(lp775
S'lilypad328'
p776
a(dp777
g69
S'/usr/share/arduino/hardware/arduino'
p778
sS'bootloader'
p779
(dp780
S'extended_fuses'
p781
S'0x05'
p782
sS'high_fuses'
p783
S'0xDA'
p784
sS'low_fuses'
p785
S'0xFF'
p786
sS'lock_bits'
p787
S'0x0F'
p788
sS'file'
p789
S'ATmegaBOOT_168_atmega328_pro_8MHz.hex'
p790
sS'path'
p791
S'atmega'
p792
sS'unlock_bits'
p793
S'0x3F'
p794
ssS'upload'
p795
(dp796
S'protocol'
p797
S'arduino'
p798
sS'maximum_size'
p799
S'30720'
p800
sS'speed'
p801
S'57600'
p802
ssS'name'
p803
S'LilyPad Arduino w/ ATmega328'
p804
sS'build'
p805
(dp806
S'core'
p807
S'arduino'
p808
sS'mcu'
p809
S'atmega328p'
p810
sS'f_cpu'
p811
S'8000000L'
p812
sS'variant'
p813
S'standard'
p814
ssaa(lp815
S'lilypad'
p816
a(dp817
g69
S'/usr/share/arduino/hardware/arduino'
p818
sS'bootloader'
p819
(dp820
S'extended_fuses'
p821
S'0x00'
p822
sS'high_fuses'
p823
S'0xdd'
p824
sS'low_fuses'
p825
S'0xe2'
p826
sS'lock_bits'
p827
S'0x0F'
p828
sS'file'
p829
S'LilyPadBOOT_168.hex'
p830
sS'path'
p831
S'lilypad'
p832
sS'unlock_bits'
p833
S'0x3F'
p834
ssS'upload'
p835
(dp836
S'protocol'
p837
S'arduino'
p838
sS'maximum_size'
p839
S'14336'
p840
sS'speed'
p841
S'19200'
p842
ssS'name'
p843
S'LilyPad Arduino w/ ATmega168'
p844
sS'build'
p845
(dp846
S'core'
p847
S'arduino'
p848
sS'mcu'
p849
S'atmega168'
p850
sS'f_cpu'
p851
S'8000000L'
p852
sS'variant'
p853
S'standard'
p854
ssaa(lp855
S'pro5v328'
p856
a(dp857
g69
S'/usr/share/arduino/hardware/arduino'
p858
sS'bootloader'
p859
(dp860
S'extended_fuses'
p861
S'0x05'
p862
sS'high_fuses'
p863
S'0xDA'
p864
sS'low_fuses'
p865
S'0xFF'
p866
sS'lock_bits'
p867
S'0x0F'
p868
sS'file'
p869
S'ATmegaBOOT_168_atmega328.hex'
p870
sS'path'
p871
S'atmega'
p872
sS'unlock_bits'
p873
S'0x3F'
p874
ssS'upload'
p875
(dp876
S'protocol'
p877
S'arduino'
p878
sS'maximum_size'
p879
S'30720'
p880
sS'speed'
p881
S'57600'
p882
ssS'name'
p883
S'Arduino Pro or Pro Mini (5V, 16 MHz) w/ ATmega328'
p884
sS'build'
p885
(dp886
S'core'
p887
S'arduino'
p888
sS'mcu'
p889
S'atmega328p'
p890
sS'f_cpu'
p891
S'16000000L'
p892
sS'variant'
p893
S'standard'
p894
ssaa(lp895
S'pro5v'
p896
a(dp897
g69
S'/usr/share/arduino/hardware/arduino'
p898
sS'bootloader'
p899
(dp900
S'extended_fuses'
p901
S'0x00'
p902
sS'high_fuses'
p903
S'0xdd'
p904
sS'low_fuses'
p905
S'0xff'
p906
sS'lock_bits'
p907
S'0x0F'
p908
sS'file'
p909
S'ATmegaBOOT_168_diecimila.hex'
p910
sS'path'
p911
S'atmega'
p912
sS'unlock_bits'
p913
S'0x3F'
p914
ssS'upload'
p915
(dp916
S'protocol'
p917
S'arduino'
p918
sS'maximum_size'
p919
S'14336'
p920
sS'speed'
p921
S'19200'
p922
ssS'name'
p923
S'Arduino Pro or Pro Mini (5V, 16 MHz) w/ ATmega168'
p924
sS'build'
p925
(dp926
S'core'
p927
S'arduino'
p928
sS'mcu'
p929
S'atmega168'
p930
sS'f_cpu'
p931
S'16000000L'
p932
sS'variant'
p933
S'standard'
p934
ssaa(lp935
S'pro328'
p936
a(dp937
g69
S'/usr/share/arduino/hardware/arduino'
p938
sS'bootloader'
p939
(dp940
S'extended_fuses'
p941
S'0x05'
p942
sS'high_fuses'
p943
S'0xDA'
p944
sS'low_fuses'
p945
S'0xFF'
p946
sS'lock_bits'
p947
S'0x0F'
p948
sS'file'
p949
S'ATmegaBOOT_168_atmega328_pro_8MHz.hex'
p950
sS'path'
p951
S'atmega'
p952
sS'unlock_bits'
p953
S'0x3F'
p954
ssS'upload'
p955
(dp956
S'protocol'
p957
S'arduino'
p958
sS'maximum_size'
p959
S'30720'
p960
sS'speed'
p961
S'57600'
p962
ssS'name'
p963
S'Arduino Pro or Pro Mini (3.3V, 8 MHz) w/ ATmega328'
p964
sS'build'
p965
(dp966
S'core'
p967
S'arduino'
p968
sS'mcu'
p969
S'atmega328p'
p970
sS'f_cpu'
p971
S'8000000L'
p972
sS'variant'
p973
S'standard'
p974
ssaa(lp975
S'pro'
p976
a(dp977
g69
S'/usr/share/arduino/hardware/arduino'
p978
sS'bootloader'
p979
(dp980
S'extended_fuses'
p981
S'0x00'
p982
sS'high_fuses'
p983
S'0xdd'
p984
sS'low_fuses'
p985
S'0xc6'
p986
sS'lock_bits'
p987
S'0x0F'
p988
sS'file'
p989
S'ATmegaBOOT_168_pro_8MHz.hex'
p990
sS'path'
p991
S'atmega'
p992
sS'unlock_bits'
p993
S'0x3F'
p994
ssS'upload'
p995
(dp996
S'protocol'
p997
S'arduino'
p998
sS'maximum_size'
p999
S'14336'
p1000
sS'speed'
p1001
S'19200'
p1002
ssS'name'
p1003
S'Arduino Pro or Pro Mini (3.3V, 8 MHz) w/ ATmega168'
p1004
sS'build'
p1005
(dp1006
S'core'
p1007
S'arduino'
p1008
sS'mcu'
p1009
S'atmega168'
p1010
sS'f_cpu'
p1011
S'8000000L'
p1012
sS'variant'
p1013
S'standard'
p1014
ssaa(lp1015
S'atmega168'
p1016
a(dp1017
g69
S'/usr/share/arduino/hardware/arduino'
p1018
sS'bootloader'
p1019
(dp1020
S'extended_fuses'
p1021
S'0x00'
p1022
sS'high_fuses'
p1023
S'0xdd'
p1024
sS'low_fuses'
p1025
S'0xff'
p1026
sS'lock_bits'
p1027
S'0x0F'
p1028
sS'file'
p1029
S'ATmegaBOOT_168_ng.hex'
p1030
sS'path'
p1031
S'atmega'
p1032
sS'unlock_bits'
p1033
S'0x3F'
p1034
ssS'upload'
p1035
(dp1036
S'protocol'
p1037
S'arduino'
p1038
sS'maximum_size'
p1039
S'14336'
p1040
sS'speed'
p1041
S'19200'
p1042
ssS'name'
p1043
S'Arduino NG or older w/ ATmega168'
p1044
sS'build'
p1045
(dp1046
S'core'
p1047
S'arduino'
p1048
sS'mcu'
p1049
S'atmega168'
p1050
sS'f_cpu'
p1051
S'16000000L'
p1052
sS'variant'
p1053
S'standard'
p1054
ssaa(lp1055
S'atmega8'
p1056
a(dp1057
g69
S'/usr/share/arduino/hardware/arduino'
p1058
sS'bootloader'
p1059
(dp1060
S'high_fuses'
p1061
S'0xca'
p1062
sS'low_fuses'
p1063
S'0xdf'
p1064
sS'lock_bits'
p1065
S'0x0F'
p1066
sS'file'
p1067
S'ATmegaBOOT-prod-firmware-2009-11-07.hex'
p1068
sS'path'
p1069
S'atmega8'
p1070
sS'unlock_bits'
p1071
S'0x3F'
p1072
ssS'upload'
p1073
(dp1074
S'protocol'
p1075
S'arduino'
p1076
sS'maximum_size'
p1077
S'7168'
p1078
sS'speed'
p1079
S'19200'
p1080
ssS'name'
p1081
S'Arduino NG or older w/ ATmega8'
p1082
sS'build'
p1083
(dp1084
S'core'
p1085
S'arduino'
p1086
sS'mcu'
p1087
S'atmega8'
p1088
sS'f_cpu'
p1089
S'16000000L'
p1090
sS'variant'
p1091
S'standard'
p1092
ssaa(lp1093
S'robotControl'
p1094
a(dp1095
g69
S'/usr/share/arduino/hardware/arduino'
p1096
sS'bootloader'
p1097
(dp1098
S'extended_fuses'
p1099
S'0xcb'
p1100
sS'high_fuses'
p1101
S'0xd8'
p1102
sS'low_fuses'
p1103
S'0xff'
p1104
sS'lock_bits'
p1105
S'0x2F'
p1106
sS'file'
p1107
S'Caterina-Robot-Control.hex'
p1108
sS'path'
p1109
S'caterina-Arduino_Robot'
p1110
sS'unlock_bits'
p1111
S'0x3F'
p1112
ssS'upload'
p1113
(dp1114
S'protocol'
p1115
S'avr109'
p1116
sS'maximum_size'
p1117
S'28672'
p1118
sS'speed'
p1119
S'57600'
p1120
sS'disable_flushing'
p1121
S'true'
p1122
ssS'name'
p1123
S'Arduino Robot Control'
p1124
sS'build'
p1125
(dp1126
S'core'
p1127
S'robot'
p1128
sS'f_cpu'
p1129
S'16000000L'
p1130
sS'vid'
p1131
S'0x2341'
p1132
sS'pid'
p1133
S'0x8038'
p1134
sS'variant'
p1135
S'robot_control'
p1136
sS'mcu'
p1137
S'atmega32u4'
p1138
ssaa(lp1139
S'robotMotor'
p1140
a(dp1141
g69
S'/usr/share/arduino/hardware/arduino'
p1142
sS'bootloader'
p1143
(dp1144
S'extended_fuses'
p1145
S'0xcb'
p1146
sS'high_fuses'
p1147
S'0xd8'
p1148
sS'low_fuses'
p1149
S'0xff'
p1150
sS'lock_bits'
p1151
S'0x2F'
p1152
sS'file'
p1153
S'Caterina-Robot-Motor.hex'
p1154
sS'path'
p1155
S'caterina-Arduino_Robot'
p1156
sS'unlock_bits'
p1157
S'0x3F'
p1158
ssS'upload'
p1159
(dp1160
S'protocol'
p1161
S'avr109'
p1162
sS'maximum_size'
p1163
S'28672'
p1164
sS'speed'
p1165
S'57600'
p1166
sS'disable_flushing'
p1167
S'true'
p1168
ssS'name'
p1169
S'Arduino Robot Motor'
p1170
sS'build'
p1171
(dp1172
S'core'
p1173
S'robot'
p1174
sS'f_cpu'
p1175
S'16000000L'
p1176
sS'vid'
p1177
S'0x2341'
p1178
sS'pid'
p1179
S'0x8039'
p1180
sS'variant'
p1181
S'robot_motor'
p1182
sS'mcu'
p1183
S'atmega32u4'
p1184
ssaatp1185
Rp1186
(dp1187
S'default'
p1188
S'uno'
p1189
sbtp1190
a(S'used_libs'
p1191
(lp1192
S'lib/aJson'
p1193
aS'/usr/share/arduino/hardware/arduino/cores/arduino'
p1194
atp1195
a(S'make'
p1196
S'/usr/share/arduino/hardware/tools/avr/bin/make'
p1197
tp1198
a(S'build_dir'
p1199
S'.build/uno'
p1200
tp1201
a(S'cc'
p1202
S'/usr/share/arduino/hardware/tools/avr/bin/avr-gcc'
p1203
tp1204
a(S'cflags'
p1205
g2
(g3
g4
(lp1206
tp1207
Rp1208
tp1209
a(S'cxxflags'
p1210
g2
(g3
g4
(lp1211
S'-fno-exceptions'
p1212
atp1213
Rp1214
tp1215
a(S'arduino_variants_dir'
p1216
S'/usr/share/arduino/hardware/arduino/variants'
p1217
tp1218
a(S'stty'
p1219
S'/bin/stty'
p1220
tp1221
a(S'version.txt'
p1222
S'/usr/share/arduino/lib/version.txt'
p1223
tp1224
a(S'arduino_core_dir'
p1225
g1194
tp1226
a(S'boards.txt'
p1227
(lp1228
S'/usr/share/arduino/hardware/arduino/boards.txt'
p1229
atp1230
a(S'avrdude.conf'
p1231
S'/usr/share/arduino/hardware/tools/avrdude.conf'
p1232
tp1233
a(S'deps'
p1234
g2
(g3
g4
(lp1235
S'.build/uno/src/dependencies.d'
p1236
aS'.build/uno/arduino/dependencies.d'
p1237
aS'.build/uno/aJson/dependencies.d'
p1238
atp1239
Rp1240
tp1241
a.