(lp0
(S'cppflags'
p1
ccopy_reg
_reconstructor
p2
(cino.utils
SpaceList
p3
c__builtin__
list
p4
(lp5
S'-mmcu=atmega328p'
p6
aS'-DF_CPU=16000000L'
p7
aS'-DARDUINO=105'
p8
aS'-I/usr/share/arduino/hardware/arduino/cores/arduino'
p9
aS'-ffunction-sections'
p10
aS'-fdata-sections'
p11
aS'-g'
p12
aS'-Os'
p13
aS'-w'
p14
aS'-I/usr/share/arduino/hardware/arduino/variants/standard'
p15
aS'-Ilib/aJson'
p16
aS'-Ilib/aJson/utility'
p17
aS'-Ilib/Tlc5940-master'
p18
aS'-Ilib/Tlc5940-master/pinouts'
p19
aS'-I/usr/share/arduino/libraries/SoftwareSerial'
p20
aS'-I/usr/share/arduino/hardware/arduino/cores/arduino'
p21
aS'-I/usr/share/arduino/hardware/arduino/cores/arduino/avr-libc'
p22
atp23
Rp24
tp25
a(S'cxx'
p26
S'/usr/share/arduino/hardware/tools/avr/bin/avr-g++'
p27
tp28
a(S'arduino_libraries_dir'
p29
S'/usr/share/arduino/libraries'
p30
tp31
a(S'avrdude'
p32
S'/usr/share/arduino/hardware/tools/avrdude'
p33
tp34
a(S'ar'
p35
S'/usr/share/arduino/hardware/tools/avr/bin/avr-ar'
p36
tp37
a(S'names'
p38
(dp39
S'cpp'
p40
S'%s.cpp'
p41
sS'obj'
p42
S'%s.o'
p43
sS'lib'
p44
S'lib%s.a'
p45
sS'deps'
p46
S'%s.d'
p47
stp48
a(S'ldflags'
p49
g2
(g3
g4
(lp50
g6
aS'-Wl,-Os'
p51
aS'-Wl,--gc-sections'
p52
atp53
Rp54
tp55
a(S'arduino_lib_version'
p56
g2
(cino.environment
Version
p57
c__builtin__
tuple
p58
(I1
I0
I5
tp59
tp60
Rp61
tp62
a(S'objcopy'
p63
S'/usr/share/arduino/hardware/tools/avr/bin/avr-objcopy'
p64
tp65
a(S'board_models'
p66
cino.environment
BoardModels
p67
((lp68
(lp69
S'uno'
p70
a(dp71
S'_coredir'
p72
S'/usr/share/arduino/hardware/arduino'
p73
sS'bootloader'
p74
(dp75
S'extended_fuses'
p76
S'0x05'
p77
sS'high_fuses'
p78
S'0xde'
p79
sS'low_fuses'
p80
S'0xff'
p81
sS'lock_bits'
p82
S'0x0F'
p83
sS'file'
p84
S'optiboot_atmega328.hex'
p85
sS'path'
p86
S'optiboot'
p87
sS'unlock_bits'
p88
S'0x3F'
p89
ssS'build'
p90
(dp91
S'core'
p92
S'arduino'
p93
sS'mcu'
p94
S'atmega328p'
p95
sS'f_cpu'
p96
S'16000000L'
p97
sS'variant'
p98
S'standard'
p99
ssS'name'
p100
S'Arduino Uno'
p101
sS'upload'
p102
(dp103
S'protocol'
p104
S'arduino'
p105
sS'maximum_size'
p106
S'32256'
p107
sS'speed'
p108
S'115200'
p109
ssaa(lp110
S'atmega328'
p111
a(dp112
g72
S'/usr/share/arduino/hardware/arduino'
p113
sS'bootloader'
p114
(dp115
S'extended_fuses'
p116
S'0x05'
p117
sS'high_fuses'
p118
S'0xDA'
p119
sS'low_fuses'
p120
S'0xFF'
p121
sS'lock_bits'
p122
S'0x0F'
p123
sS'file'
p124
S'ATmegaBOOT_168_atmega328.hex'
p125
sS'path'
p126
S'atmega'
p127
sS'unlock_bits'
p128
S'0x3F'
p129
ssS'build'
p130
(dp131
S'core'
p132
S'arduino'
p133
sS'mcu'
p134
S'atmega328p'
p135
sS'f_cpu'
p136
S'16000000L'
p137
sS'variant'
p138
S'standard'
p139
ssS'name'
p140
S'Arduino Duemilanove w/ ATmega328'
p141
sS'upload'
p142
(dp143
S'protocol'
p144
S'arduino'
p145
sS'maximum_size'
p146
S'30720'
p147
sS'speed'
p148
S'57600'
p149
ssaa(lp150
S'diecimila'
p151
a(dp152
g72
S'/usr/share/arduino/hardware/arduino'
p153
sS'bootloader'
p154
(dp155
S'extended_fuses'
p156
S'0x00'
p157
sS'high_fuses'
p158
S'0xdd'
p159
sS'low_fuses'
p160
S'0xff'
p161
sS'lock_bits'
p162
S'0x0F'
p163
sS'file'
p164
S'ATmegaBOOT_168_diecimila.hex'
p165
sS'path'
p166
S'atmega'
p167
sS'unlock_bits'
p168
S'0x3F'
p169
ssS'build'
p170
(dp171
S'core'
p172
S'arduino'
p173
sS'mcu'
p174
S'atmega168'
p175
sS'f_cpu'
p176
S'16000000L'
p177
sS'variant'
p178
S'standard'
p179
ssS'name'
p180
S'Arduino Diecimila or Duemilanove w/ ATmega168'
p181
sS'upload'
p182
(dp183
S'protocol'
p184
S'arduino'
p185
sS'maximum_size'
p186
S'14336'
p187
sS'speed'
p188
S'19200'
p189
ssaa(lp190
S'nano328'
p191
a(dp192
g72
S'/usr/share/arduino/hardware/arduino'
p193
sS'bootloader'
p194
(dp195
S'extended_fuses'
p196
S'0x05'
p197
sS'high_fuses'
p198
S'0xDA'
p199
sS'low_fuses'
p200
S'0xFF'
p201
sS'lock_bits'
p202
S'0x0F'
p203
sS'file'
p204
S'ATmegaBOOT_168_atmega328.hex'
p205
sS'path'
p206
S'atmega'
p207
sS'unlock_bits'
p208
S'0x3F'
p209
ssS'build'
p210
(dp211
S'core'
p212
S'arduino'
p213
sS'mcu'
p214
S'atmega328p'
p215
sS'f_cpu'
p216
S'16000000L'
p217
sS'variant'
p218
S'eightanaloginputs'
p219
ssS'name'
p220
S'Arduino Nano w/ ATmega328'
p221
sS'upload'
p222
(dp223
S'protocol'
p224
S'arduino'
p225
sS'maximum_size'
p226
S'30720'
p227
sS'speed'
p228
S'57600'
p229
ssaa(lp230
S'nano'
p231
a(dp232
g72
S'/usr/share/arduino/hardware/arduino'
p233
sS'bootloader'
p234
(dp235
S'extended_fuses'
p236
S'0x00'
p237
sS'high_fuses'
p238
S'0xdd'
p239
sS'low_fuses'
p240
S'0xff'
p241
sS'lock_bits'
p242
S'0x0F'
p243
sS'file'
p244
S'ATmegaBOOT_168_diecimila.hex'
p245
sS'path'
p246
S'atmega'
p247
sS'unlock_bits'
p248
S'0x3F'
p249
ssS'build'
p250
(dp251
S'core'
p252
S'arduino'
p253
sS'mcu'
p254
S'atmega168'
p255
sS'f_cpu'
p256
S'16000000L'
p257
sS'variant'
p258
S'eightanaloginputs'
p259
ssS'name'
p260
S'Arduino Nano w/ ATmega168'
p261
sS'upload'
p262
(dp263
S'protocol'
p264
S'arduino'
p265
sS'maximum_size'
p266
S'14336'
p267
sS'speed'
p268
S'19200'
p269
ssaa(lp270
S'mega2560'
p271
a(dp272
g72
S'/usr/share/arduino/hardware/arduino'
p273
sS'bootloader'
p274
(dp275
S'extended_fuses'
p276
S'0xFD'
p277
sS'high_fuses'
p278
S'0xD8'
p279
sS'low_fuses'
p280
S'0xFF'
p281
sS'lock_bits'
p282
S'0x0F'
p283
sS'file'
p284
S'stk500boot_v2_mega2560.hex'
p285
sS'path'
p286
S'stk500v2'
p287
sS'unlock_bits'
p288
S'0x3F'
p289
ssS'build'
p290
(dp291
S'core'
p292
S'arduino'
p293
sS'mcu'
p294
S'atmega2560'
p295
sS'f_cpu'
p296
S'16000000L'
p297
sS'variant'
p298
S'mega'
p299
ssS'name'
p300
S'Arduino Mega 2560 or Mega ADK'
p301
sS'upload'
p302
(dp303
S'protocol'
p304
S'wiring'
p305
sS'maximum_size'
p306
S'258048'
p307
sS'speed'
p308
S'115200'
p309
ssaa(lp310
S'mega'
p311
a(dp312
g72
S'/usr/share/arduino/hardware/arduino'
p313
sS'bootloader'
p314
(dp315
S'extended_fuses'
p316
S'0xF5'
p317
sS'high_fuses'
p318
S'0xDA'
p319
sS'low_fuses'
p320
S'0xFF'
p321
sS'lock_bits'
p322
S'0x0F'
p323
sS'file'
p324
S'ATmegaBOOT_168_atmega1280.hex'
p325
sS'path'
p326
S'atmega'
p327
sS'unlock_bits'
p328
S'0x3F'
p329
ssS'build'
p330
(dp331
S'core'
p332
S'arduino'
p333
sS'mcu'
p334
S'atmega1280'
p335
sS'f_cpu'
p336
S'16000000L'
p337
sS'variant'
p338
S'mega'
p339
ssS'name'
p340
S'Arduino Mega (ATmega1280)'
p341
sS'upload'
p342
(dp343
S'protocol'
p344
S'arduino'
p345
sS'maximum_size'
p346
S'126976'
p347
sS'speed'
p348
S'57600'
p349
ssaa(lp350
S'leonardo'
p351
a(dp352
g72
S'/usr/share/arduino/hardware/arduino'
p353
sS'bootloader'
p354
(dp355
S'extended_fuses'
p356
S'0xcb'
p357
sS'high_fuses'
p358
S'0xd8'
p359
sS'low_fuses'
p360
S'0xff'
p361
sS'lock_bits'
p362
S'0x2F'
p363
sS'file'
p364
S'Caterina-Leonardo.hex'
p365
sS'path'
p366
S'caterina'
p367
sS'unlock_bits'
p368
S'0x3F'
p369
ssS'build'
p370
(dp371
S'core'
p372
S'arduino'
p373
sS'f_cpu'
p374
S'16000000L'
p375
sS'vid'
p376
S'0x2341'
p377
sS'pid'
p378
S'0x8036'
p379
sS'variant'
p380
S'leonardo'
p381
sS'mcu'
p382
S'atmega32u4'
p383
ssS'name'
p384
S'Arduino Leonardo'
p385
sS'upload'
p386
(dp387
S'protocol'
p388
S'avr109'
p389
sS'maximum_size'
p390
S'28672'
p391
sS'speed'
p392
S'57600'
p393
sS'disable_flushing'
p394
S'true'
p395
ssaa(lp396
S'esplora'
p397
a(dp398
g72
S'/usr/share/arduino/hardware/arduino'
p399
sS'bootloader'
p400
(dp401
S'extended_fuses'
p402
S'0xcb'
p403
sS'high_fuses'
p404
S'0xd8'
p405
sS'low_fuses'
p406
S'0xff'
p407
sS'lock_bits'
p408
S'0x2F'
p409
sS'file'
p410
S'Caterina-Esplora.hex'
p411
sS'path'
p412
S'caterina'
p413
sS'unlock_bits'
p414
S'0x3F'
p415
ssS'build'
p416
(dp417
S'core'
p418
S'arduino'
p419
sS'f_cpu'
p420
S'16000000L'
p421
sS'vid'
p422
S'0x2341'
p423
sS'pid'
p424
S'0x803C'
p425
sS'variant'
p426
S'leonardo'
p427
sS'mcu'
p428
S'atmega32u4'
p429
ssS'name'
p430
S'Arduino Esplora'
p431
sS'upload'
p432
(dp433
S'protocol'
p434
S'avr109'
p435
sS'maximum_size'
p436
S'28672'
p437
sS'speed'
p438
S'57600'
p439
sS'disable_flushing'
p440
S'true'
p441
ssaa(lp442
S'micro'
p443
a(dp444
g72
S'/usr/share/arduino/hardware/arduino'
p445
sS'bootloader'
p446
(dp447
S'extended_fuses'
p448
S'0xcb'
p449
sS'high_fuses'
p450
S'0xd8'
p451
sS'low_fuses'
p452
S'0xff'
p453
sS'lock_bits'
p454
S'0x2F'
p455
sS'file'
p456
S'Caterina-Micro.hex'
p457
sS'path'
p458
S'caterina'
p459
sS'unlock_bits'
p460
S'0x3F'
p461
ssS'build'
p462
(dp463
S'core'
p464
S'arduino'
p465
sS'f_cpu'
p466
S'16000000L'
p467
sS'vid'
p468
S'0x2341'
p469
sS'pid'
p470
S'0x8037'
p471
sS'variant'
p472
S'micro'
p473
sS'mcu'
p474
S'atmega32u4'
p475
ssS'name'
p476
S'Arduino Micro'
p477
sS'upload'
p478
(dp479
S'protocol'
p480
S'avr109'
p481
sS'maximum_size'
p482
S'28672'
p483
sS'speed'
p484
S'57600'
p485
sS'disable_flushing'
p486
S'true'
p487
ssaa(lp488
S'mini328'
p489
a(dp490
g72
S'/usr/share/arduino/hardware/arduino'
p491
sS'bootloader'
p492
(dp493
S'extended_fuses'
p494
S'0x05'
p495
sS'high_fuses'
p496
S'0xd8'
p497
sS'low_fuses'
p498
S'0xff'
p499
sS'lock_bits'
p500
S'0x0F'
p501
sS'file'
p502
S'optiboot_atmega328-Mini.hex'
p503
sS'path'
p504
S'optiboot'
p505
sS'unlock_bits'
p506
S'0x3F'
p507
ssS'build'
p508
(dp509
S'core'
p510
S'arduino'
p511
sS'mcu'
p512
S'atmega328p'
p513
sS'f_cpu'
p514
S'16000000L'
p515
sS'variant'
p516
S'eightanaloginputs'
p517
ssS'name'
p518
S'Arduino Mini w/ ATmega328'
p519
sS'upload'
p520
(dp521
S'protocol'
p522
S'arduino'
p523
sS'maximum_size'
p524
S'28672'
p525
sS'speed'
p526
S'115200'
p527
ssaa(lp528
S'mini'
p529
a(dp530
g72
S'/usr/share/arduino/hardware/arduino'
p531
sS'bootloader'
p532
(dp533
S'extended_fuses'
p534
S'0x00'
p535
sS'high_fuses'
p536
S'0xdd'
p537
sS'low_fuses'
p538
S'0xff'
p539
sS'lock_bits'
p540
S'0x0F'
p541
sS'file'
p542
S'ATmegaBOOT_168_ng.hex'
p543
sS'path'
p544
S'atmega'
p545
sS'unlock_bits'
p546
S'0x3F'
p547
ssS'build'
p548
(dp549
S'core'
p550
S'arduino'
p551
sS'mcu'
p552
S'atmega168'
p553
sS'f_cpu'
p554
S'16000000L'
p555
sS'variant'
p556
S'eightanaloginputs'
p557
ssS'name'
p558
S'Arduino Mini w/ ATmega168'
p559
sS'upload'
p560
(dp561
S'protocol'
p562
S'arduino'
p563
sS'maximum_size'
p564
S'14336'
p565
sS'speed'
p566
S'19200'
p567
ssaa(lp568
S'ethernet'
p569
a(dp570
g72
S'/usr/share/arduino/hardware/arduino'
p571
sS'bootloader'
p572
(dp573
S'extended_fuses'
p574
S'0x05'
p575
sS'high_fuses'
p576
S'0xde'
p577
sS'low_fuses'
p578
S'0xff'
p579
sS'lock_bits'
p580
S'0x0F'
p581
sS'file'
p582
S'optiboot_atmega328.hex'
p583
sS'path'
p584
S'optiboot'
p585
sS'unlock_bits'
p586
S'0x3F'
p587
ssS'build'
p588
(dp589
S'variant'
p590
S'standard'
p591
sS'mcu'
p592
S'atmega328p'
p593
sS'f_cpu'
p594
S'16000000L'
p595
sS'core'
p596
S'arduino'
p597
ssS'name'
p598
S'Arduino Ethernet'
p599
sS'upload'
p600
(dp601
S'protocol'
p602
S'arduino'
p603
sS'maximum_size'
p604
S'32256'
p605
sS'speed'
p606
S'115200'
p607
ssaa(lp608
S'fio'
p609
a(dp610
g72
S'/usr/share/arduino/hardware/arduino'
p611
sS'bootloader'
p612
(dp613
S'extended_fuses'
p614
S'0x05'
p615
sS'high_fuses'
p616
S'0xDA'
p617
sS'low_fuses'
p618
S'0xFF'
p619
sS'lock_bits'
p620
S'0x0F'
p621
sS'file'
p622
S'ATmegaBOOT_168_atmega328_pro_8MHz.hex'
p623
sS'path'
p624
S'arduino:atmega'
p625
sS'unlock_bits'
p626
S'0x3F'
p627
ssS'build'
p628
(dp629
S'core'
p630
S'arduino'
p631
sS'mcu'
p632
S'atmega328p'
p633
sS'f_cpu'
p634
S'8000000L'
p635
sS'variant'
p636
S'eightanaloginputs'
p637
ssS'name'
p638
S'Arduino Fio'
p639
sS'upload'
p640
(dp641
S'protocol'
p642
S'arduino'
p643
sS'maximum_size'
p644
S'30720'
p645
sS'speed'
p646
S'57600'
p647
ssaa(lp648
S'bt328'
p649
a(dp650
g72
S'/usr/share/arduino/hardware/arduino'
p651
sS'bootloader'
p652
(dp653
S'extended_fuses'
p654
S'0x05'
p655
sS'high_fuses'
p656
S'0xd8'
p657
sS'low_fuses'
p658
S'0xff'
p659
sS'lock_bits'
p660
S'0x0F'
p661
sS'file'
p662
S'ATmegaBOOT_168_atmega328_bt.hex'
p663
sS'path'
p664
S'bt'
p665
sS'unlock_bits'
p666
S'0x3F'
p667
ssS'build'
p668
(dp669
S'core'
p670
S'arduino'
p671
sS'mcu'
p672
S'atmega328p'
p673
sS'f_cpu'
p674
S'16000000L'
p675
sS'variant'
p676
S'eightanaloginputs'
p677
ssS'name'
p678
S'Arduino BT w/ ATmega328'
p679
sS'upload'
p680
(dp681
S'protocol'
p682
S'arduino'
p683
sS'maximum_size'
p684
S'28672'
p685
sS'speed'
p686
S'19200'
p687
sS'disable_flushing'
p688
S'true'
p689
ssaa(lp690
S'bt'
p691
a(dp692
g72
S'/usr/share/arduino/hardware/arduino'
p693
sS'bootloader'
p694
(dp695
S'extended_fuses'
p696
S'0x00'
p697
sS'high_fuses'
p698
S'0xdd'
p699
sS'low_fuses'
p700
S'0xff'
p701
sS'lock_bits'
p702
S'0x0F'
p703
sS'file'
p704
S'ATmegaBOOT_168.hex'
p705
sS'path'
p706
S'bt'
p707
sS'unlock_bits'
p708
S'0x3F'
p709
ssS'build'
p710
(dp711
S'core'
p712
S'arduino'
p713
sS'mcu'
p714
S'atmega168'
p715
sS'f_cpu'
p716
S'16000000L'
p717
sS'variant'
p718
S'eightanaloginputs'
p719
ssS'name'
p720
S'Arduino BT w/ ATmega168'
p721
sS'upload'
p722
(dp723
S'protocol'
p724
S'arduino'
p725
sS'maximum_size'
p726
S'14336'
p727
sS'speed'
p728
S'19200'
p729
sS'disable_flushing'
p730
S'true'
p731
ssaa(lp732
S'LilyPadUSB'
p733
a(dp734
g72
S'/usr/share/arduino/hardware/arduino'
p735
sS'bootloader'
p736
(dp737
S'extended_fuses'
p738
S'0xce'
p739
sS'high_fuses'
p740
S'0xd8'
p741
sS'low_fuses'
p742
S'0xff'
p743
sS'lock_bits'
p744
S'0x2F'
p745
sS'file'
p746
S'Caterina-LilyPadUSB.hex'
p747
sS'path'
p748
S'caterina-LilyPadUSB'
p749
sS'unlock_bits'
p750
S'0x3F'
p751
ssS'build'
p752
(dp753
S'core'
p754
S'arduino'
p755
sS'f_cpu'
p756
S'8000000L'
p757
sS'vid'
p758
S'0x1B4F'
p759
sS'pid'
p760
S'0x9208'
p761
sS'variant'
p762
S'leonardo'
p763
sS'mcu'
p764
S'atmega32u4'
p765
ssS'name'
p766
S'LilyPad Arduino USB'
p767
sS'upload'
p768
(dp769
S'protocol'
p770
S'avr109'
p771
sS'maximum_size'
p772
S'28672'
p773
sS'speed'
p774
S'57600'
p775
sS'disable_flushing'
p776
S'true'
p777
ssaa(lp778
S'lilypad328'
p779
a(dp780
g72
S'/usr/share/arduino/hardware/arduino'
p781
sS'bootloader'
p782
(dp783
S'extended_fuses'
p784
S'0x05'
p785
sS'high_fuses'
p786
S'0xDA'
p787
sS'low_fuses'
p788
S'0xFF'
p789
sS'lock_bits'
p790
S'0x0F'
p791
sS'file'
p792
S'ATmegaBOOT_168_atmega328_pro_8MHz.hex'
p793
sS'path'
p794
S'atmega'
p795
sS'unlock_bits'
p796
S'0x3F'
p797
ssS'build'
p798
(dp799
S'core'
p800
S'arduino'
p801
sS'mcu'
p802
S'atmega328p'
p803
sS'f_cpu'
p804
S'8000000L'
p805
sS'variant'
p806
S'standard'
p807
ssS'name'
p808
S'LilyPad Arduino w/ ATmega328'
p809
sS'upload'
p810
(dp811
S'protocol'
p812
S'arduino'
p813
sS'maximum_size'
p814
S'30720'
p815
sS'speed'
p816
S'57600'
p817
ssaa(lp818
S'lilypad'
p819
a(dp820
g72
S'/usr/share/arduino/hardware/arduino'
p821
sS'bootloader'
p822
(dp823
S'extended_fuses'
p824
S'0x00'
p825
sS'high_fuses'
p826
S'0xdd'
p827
sS'low_fuses'
p828
S'0xe2'
p829
sS'lock_bits'
p830
S'0x0F'
p831
sS'file'
p832
S'LilyPadBOOT_168.hex'
p833
sS'path'
p834
S'lilypad'
p835
sS'unlock_bits'
p836
S'0x3F'
p837
ssS'build'
p838
(dp839
S'core'
p840
S'arduino'
p841
sS'mcu'
p842
S'atmega168'
p843
sS'f_cpu'
p844
S'8000000L'
p845
sS'variant'
p846
S'standard'
p847
ssS'name'
p848
S'LilyPad Arduino w/ ATmega168'
p849
sS'upload'
p850
(dp851
S'protocol'
p852
S'arduino'
p853
sS'maximum_size'
p854
S'14336'
p855
sS'speed'
p856
S'19200'
p857
ssaa(lp858
S'pro5v328'
p859
a(dp860
g72
S'/usr/share/arduino/hardware/arduino'
p861
sS'bootloader'
p862
(dp863
S'extended_fuses'
p864
S'0x05'
p865
sS'high_fuses'
p866
S'0xDA'
p867
sS'low_fuses'
p868
S'0xFF'
p869
sS'lock_bits'
p870
S'0x0F'
p871
sS'file'
p872
S'ATmegaBOOT_168_atmega328.hex'
p873
sS'path'
p874
S'atmega'
p875
sS'unlock_bits'
p876
S'0x3F'
p877
ssS'build'
p878
(dp879
S'core'
p880
S'arduino'
p881
sS'mcu'
p882
S'atmega328p'
p883
sS'f_cpu'
p884
S'16000000L'
p885
sS'variant'
p886
S'standard'
p887
ssS'name'
p888
S'Arduino Pro or Pro Mini (5V, 16 MHz) w/ ATmega328'
p889
sS'upload'
p890
(dp891
S'protocol'
p892
S'arduino'
p893
sS'maximum_size'
p894
S'30720'
p895
sS'speed'
p896
S'57600'
p897
ssaa(lp898
S'pro5v'
p899
a(dp900
g72
S'/usr/share/arduino/hardware/arduino'
p901
sS'bootloader'
p902
(dp903
S'extended_fuses'
p904
S'0x00'
p905
sS'high_fuses'
p906
S'0xdd'
p907
sS'low_fuses'
p908
S'0xff'
p909
sS'lock_bits'
p910
S'0x0F'
p911
sS'file'
p912
S'ATmegaBOOT_168_diecimila.hex'
p913
sS'path'
p914
S'atmega'
p915
sS'unlock_bits'
p916
S'0x3F'
p917
ssS'build'
p918
(dp919
S'core'
p920
S'arduino'
p921
sS'mcu'
p922
S'atmega168'
p923
sS'f_cpu'
p924
S'16000000L'
p925
sS'variant'
p926
S'standard'
p927
ssS'name'
p928
S'Arduino Pro or Pro Mini (5V, 16 MHz) w/ ATmega168'
p929
sS'upload'
p930
(dp931
S'protocol'
p932
S'arduino'
p933
sS'maximum_size'
p934
S'14336'
p935
sS'speed'
p936
S'19200'
p937
ssaa(lp938
S'pro328'
p939
a(dp940
g72
S'/usr/share/arduino/hardware/arduino'
p941
sS'bootloader'
p942
(dp943
S'extended_fuses'
p944
S'0x05'
p945
sS'high_fuses'
p946
S'0xDA'
p947
sS'low_fuses'
p948
S'0xFF'
p949
sS'lock_bits'
p950
S'0x0F'
p951
sS'file'
p952
S'ATmegaBOOT_168_atmega328_pro_8MHz.hex'
p953
sS'path'
p954
S'atmega'
p955
sS'unlock_bits'
p956
S'0x3F'
p957
ssS'build'
p958
(dp959
S'core'
p960
S'arduino'
p961
sS'mcu'
p962
S'atmega328p'
p963
sS'f_cpu'
p964
S'8000000L'
p965
sS'variant'
p966
S'standard'
p967
ssS'name'
p968
S'Arduino Pro or Pro Mini (3.3V, 8 MHz) w/ ATmega328'
p969
sS'upload'
p970
(dp971
S'protocol'
p972
S'arduino'
p973
sS'maximum_size'
p974
S'30720'
p975
sS'speed'
p976
S'57600'
p977
ssaa(lp978
S'pro'
p979
a(dp980
g72
S'/usr/share/arduino/hardware/arduino'
p981
sS'bootloader'
p982
(dp983
S'extended_fuses'
p984
S'0x00'
p985
sS'high_fuses'
p986
S'0xdd'
p987
sS'low_fuses'
p988
S'0xc6'
p989
sS'lock_bits'
p990
S'0x0F'
p991
sS'file'
p992
S'ATmegaBOOT_168_pro_8MHz.hex'
p993
sS'path'
p994
S'atmega'
p995
sS'unlock_bits'
p996
S'0x3F'
p997
ssS'build'
p998
(dp999
S'core'
p1000
S'arduino'
p1001
sS'mcu'
p1002
S'atmega168'
p1003
sS'f_cpu'
p1004
S'8000000L'
p1005
sS'variant'
p1006
S'standard'
p1007
ssS'name'
p1008
S'Arduino Pro or Pro Mini (3.3V, 8 MHz) w/ ATmega168'
p1009
sS'upload'
p1010
(dp1011
S'protocol'
p1012
S'arduino'
p1013
sS'maximum_size'
p1014
S'14336'
p1015
sS'speed'
p1016
S'19200'
p1017
ssaa(lp1018
S'atmega168'
p1019
a(dp1020
g72
S'/usr/share/arduino/hardware/arduino'
p1021
sS'bootloader'
p1022
(dp1023
S'extended_fuses'
p1024
S'0x00'
p1025
sS'high_fuses'
p1026
S'0xdd'
p1027
sS'low_fuses'
p1028
S'0xff'
p1029
sS'lock_bits'
p1030
S'0x0F'
p1031
sS'file'
p1032
S'ATmegaBOOT_168_ng.hex'
p1033
sS'path'
p1034
S'atmega'
p1035
sS'unlock_bits'
p1036
S'0x3F'
p1037
ssS'build'
p1038
(dp1039
S'core'
p1040
S'arduino'
p1041
sS'mcu'
p1042
S'atmega168'
p1043
sS'f_cpu'
p1044
S'16000000L'
p1045
sS'variant'
p1046
S'standard'
p1047
ssS'name'
p1048
S'Arduino NG or older w/ ATmega168'
p1049
sS'upload'
p1050
(dp1051
S'protocol'
p1052
S'arduino'
p1053
sS'maximum_size'
p1054
S'14336'
p1055
sS'speed'
p1056
S'19200'
p1057
ssaa(lp1058
S'atmega8'
p1059
a(dp1060
g72
S'/usr/share/arduino/hardware/arduino'
p1061
sS'bootloader'
p1062
(dp1063
S'high_fuses'
p1064
S'0xca'
p1065
sS'low_fuses'
p1066
S'0xdf'
p1067
sS'lock_bits'
p1068
S'0x0F'
p1069
sS'file'
p1070
S'ATmegaBOOT-prod-firmware-2009-11-07.hex'
p1071
sS'path'
p1072
S'atmega8'
p1073
sS'unlock_bits'
p1074
S'0x3F'
p1075
ssS'build'
p1076
(dp1077
S'core'
p1078
S'arduino'
p1079
sS'mcu'
p1080
S'atmega8'
p1081
sS'f_cpu'
p1082
S'16000000L'
p1083
sS'variant'
p1084
S'standard'
p1085
ssS'name'
p1086
S'Arduino NG or older w/ ATmega8'
p1087
sS'upload'
p1088
(dp1089
S'protocol'
p1090
S'arduino'
p1091
sS'maximum_size'
p1092
S'7168'
p1093
sS'speed'
p1094
S'19200'
p1095
ssaa(lp1096
S'robotControl'
p1097
a(dp1098
g72
S'/usr/share/arduino/hardware/arduino'
p1099
sS'bootloader'
p1100
(dp1101
S'extended_fuses'
p1102
S'0xcb'
p1103
sS'high_fuses'
p1104
S'0xd8'
p1105
sS'low_fuses'
p1106
S'0xff'
p1107
sS'lock_bits'
p1108
S'0x2F'
p1109
sS'file'
p1110
S'Caterina-Robot-Control.hex'
p1111
sS'path'
p1112
S'caterina-Arduino_Robot'
p1113
sS'unlock_bits'
p1114
S'0x3F'
p1115
ssS'build'
p1116
(dp1117
S'core'
p1118
S'robot'
p1119
sS'f_cpu'
p1120
S'16000000L'
p1121
sS'vid'
p1122
S'0x2341'
p1123
sS'pid'
p1124
S'0x8038'
p1125
sS'variant'
p1126
S'robot_control'
p1127
sS'mcu'
p1128
S'atmega32u4'
p1129
ssS'name'
p1130
S'Arduino Robot Control'
p1131
sS'upload'
p1132
(dp1133
S'protocol'
p1134
S'avr109'
p1135
sS'maximum_size'
p1136
S'28672'
p1137
sS'speed'
p1138
S'57600'
p1139
sS'disable_flushing'
p1140
S'true'
p1141
ssaa(lp1142
S'robotMotor'
p1143
a(dp1144
g72
S'/usr/share/arduino/hardware/arduino'
p1145
sS'bootloader'
p1146
(dp1147
S'extended_fuses'
p1148
S'0xcb'
p1149
sS'high_fuses'
p1150
S'0xd8'
p1151
sS'low_fuses'
p1152
S'0xff'
p1153
sS'lock_bits'
p1154
S'0x2F'
p1155
sS'file'
p1156
S'Caterina-Robot-Motor.hex'
p1157
sS'path'
p1158
S'caterina-Arduino_Robot'
p1159
sS'unlock_bits'
p1160
S'0x3F'
p1161
ssS'build'
p1162
(dp1163
S'core'
p1164
S'robot'
p1165
sS'f_cpu'
p1166
S'16000000L'
p1167
sS'vid'
p1168
S'0x2341'
p1169
sS'pid'
p1170
S'0x8039'
p1171
sS'variant'
p1172
S'robot_motor'
p1173
sS'mcu'
p1174
S'atmega32u4'
p1175
ssS'name'
p1176
S'Arduino Robot Motor'
p1177
sS'upload'
p1178
(dp1179
S'protocol'
p1180
S'avr109'
p1181
sS'maximum_size'
p1182
S'28672'
p1183
sS'speed'
p1184
S'57600'
p1185
sS'disable_flushing'
p1186
S'true'
p1187
ssaatp1188
Rp1189
(dp1190
S'default'
p1191
S'uno'
p1192
sbtp1193
a(S'used_libs'
p1194
(lp1195
S'lib/aJson'
p1196
aS'lib/Tlc5940-master'
p1197
aS'/usr/share/arduino/libraries/SoftwareSerial'
p1198
aS'/usr/share/arduino/hardware/arduino/cores/arduino'
p1199
atp1200
a(S'make'
p1201
S'/usr/share/arduino/hardware/tools/avr/bin/make'
p1202
tp1203
a(S'build_dir'
p1204
S'.build/uno'
p1205
tp1206
a(S'cc'
p1207
S'/usr/share/arduino/hardware/tools/avr/bin/avr-gcc'
p1208
tp1209
a(S'cflags'
p1210
g2
(g3
g4
(lp1211
tp1212
Rp1213
tp1214
a(S'cxxflags'
p1215
g2
(g3
g4
(lp1216
S'-fno-exceptions'
p1217
atp1218
Rp1219
tp1220
a(S'arduino_variants_dir'
p1221
S'/usr/share/arduino/hardware/arduino/variants'
p1222
tp1223
a(S'stty'
p1224
S'/bin/stty'
p1225
tp1226
a(S'version.txt'
p1227
S'/usr/share/arduino/lib/version.txt'
p1228
tp1229
a(S'arduino_core_dir'
p1230
g1199
tp1231
a(S'boards.txt'
p1232
(lp1233
S'/usr/share/arduino/hardware/arduino/boards.txt'
p1234
atp1235
a(S'avrdude.conf'
p1236
S'/usr/share/arduino/hardware/tools/avrdude.conf'
p1237
tp1238
a(g46
g2
(g3
g4
(lp1239
S'.build/uno/src/dependencies.d'
p1240
aS'.build/uno/arduino/dependencies.d'
p1241
aS'.build/uno/aJson/dependencies.d'
p1242
aS'.build/uno/Tlc5940-master/dependencies.d'
p1243
aS'.build/uno/SoftwareSerial/dependencies.d'
p1244
atp1245
Rp1246
tp1247
a.