(lp0
(S'cppflags'
p1
ccopy_reg
_reconstructor
p2
(cino.utils
SpaceList
p3
c__builtin__
list
p4
(lp5
S'-mmcu=atmega328p'
p6
aS'-DF_CPU=16000000L'
p7
aS'-DARDUINO=105'
p8
aS'-I/usr/share/arduino/hardware/arduino/cores/arduino'
p9
aS'-ffunction-sections'
p10
aS'-fdata-sections'
p11
aS'-g'
p12
aS'-Os'
p13
aS'-w'
p14
aS'-I/usr/share/arduino/hardware/arduino/variants/standard'
p15
aS'-Ilib/aJson'
p16
aS'-Ilib/aJson/utility'
p17
aS'-Ilib/Tlc5940-master'
p18
aS'-Ilib/Tlc5940-master/pinouts'
p19
aS'-Ilib/SimpleTimer'
p20
aS'-I/usr/share/arduino/libraries/SoftwareSerial'
p21
aS'-I/usr/share/arduino/hardware/arduino/cores/arduino'
p22
aS'-I/usr/share/arduino/hardware/arduino/cores/arduino/avr-libc'
p23
atp24
Rp25
tp26
a(S'cxx'
p27
S'/usr/share/arduino/hardware/tools/avr/bin/avr-g++'
p28
tp29
a(S'arduino_libraries_dir'
p30
S'/usr/share/arduino/libraries'
p31
tp32
a(S'avrdude'
p33
S'/usr/share/arduino/hardware/tools/avrdude'
p34
tp35
a(S'ar'
p36
S'/usr/share/arduino/hardware/tools/avr/bin/avr-ar'
p37
tp38
a(S'names'
p39
(dp40
S'cpp'
p41
S'%s.cpp'
p42
sS'obj'
p43
S'%s.o'
p44
sS'lib'
p45
S'lib%s.a'
p46
sS'deps'
p47
S'%s.d'
p48
stp49
a(S'ldflags'
p50
g2
(g3
g4
(lp51
g6
aS'-Wl,-Os'
p52
aS'-Wl,--gc-sections'
p53
atp54
Rp55
tp56
a(S'arduino_lib_version'
p57
g2
(cino.environment
Version
p58
c__builtin__
tuple
p59
(I1
I0
I5
tp60
tp61
Rp62
tp63
a(S'objcopy'
p64
S'/usr/share/arduino/hardware/tools/avr/bin/avr-objcopy'
p65
tp66
a(S'board_models'
p67
cino.environment
BoardModels
p68
((lp69
(lp70
S'uno'
p71
a(dp72
S'_coredir'
p73
S'/usr/share/arduino/hardware/arduino'
p74
sS'bootloader'
p75
(dp76
S'extended_fuses'
p77
S'0x05'
p78
sS'high_fuses'
p79
S'0xde'
p80
sS'low_fuses'
p81
S'0xff'
p82
sS'lock_bits'
p83
S'0x0F'
p84
sS'file'
p85
S'optiboot_atmega328.hex'
p86
sS'path'
p87
S'optiboot'
p88
sS'unlock_bits'
p89
S'0x3F'
p90
ssS'upload'
p91
(dp92
S'protocol'
p93
S'arduino'
p94
sS'maximum_size'
p95
S'32256'
p96
sS'speed'
p97
S'115200'
p98
ssS'name'
p99
S'Arduino Uno'
p100
sS'build'
p101
(dp102
S'core'
p103
S'arduino'
p104
sS'mcu'
p105
S'atmega328p'
p106
sS'f_cpu'
p107
S'16000000L'
p108
sS'variant'
p109
S'standard'
p110
ssaa(lp111
S'atmega328'
p112
a(dp113
g73
S'/usr/share/arduino/hardware/arduino'
p114
sS'bootloader'
p115
(dp116
S'extended_fuses'
p117
S'0x05'
p118
sS'high_fuses'
p119
S'0xDA'
p120
sS'low_fuses'
p121
S'0xFF'
p122
sS'lock_bits'
p123
S'0x0F'
p124
sS'file'
p125
S'ATmegaBOOT_168_atmega328.hex'
p126
sS'path'
p127
S'atmega'
p128
sS'unlock_bits'
p129
S'0x3F'
p130
ssS'upload'
p131
(dp132
S'protocol'
p133
S'arduino'
p134
sS'maximum_size'
p135
S'30720'
p136
sS'speed'
p137
S'57600'
p138
ssS'name'
p139
S'Arduino Duemilanove w/ ATmega328'
p140
sS'build'
p141
(dp142
S'core'
p143
S'arduino'
p144
sS'mcu'
p145
S'atmega328p'
p146
sS'f_cpu'
p147
S'16000000L'
p148
sS'variant'
p149
S'standard'
p150
ssaa(lp151
S'diecimila'
p152
a(dp153
g73
S'/usr/share/arduino/hardware/arduino'
p154
sS'bootloader'
p155
(dp156
S'extended_fuses'
p157
S'0x00'
p158
sS'high_fuses'
p159
S'0xdd'
p160
sS'low_fuses'
p161
S'0xff'
p162
sS'lock_bits'
p163
S'0x0F'
p164
sS'file'
p165
S'ATmegaBOOT_168_diecimila.hex'
p166
sS'path'
p167
S'atmega'
p168
sS'unlock_bits'
p169
S'0x3F'
p170
ssS'upload'
p171
(dp172
S'protocol'
p173
S'arduino'
p174
sS'maximum_size'
p175
S'14336'
p176
sS'speed'
p177
S'19200'
p178
ssS'name'
p179
S'Arduino Diecimila or Duemilanove w/ ATmega168'
p180
sS'build'
p181
(dp182
S'core'
p183
S'arduino'
p184
sS'mcu'
p185
S'atmega168'
p186
sS'f_cpu'
p187
S'16000000L'
p188
sS'variant'
p189
S'standard'
p190
ssaa(lp191
S'nano328'
p192
a(dp193
g73
S'/usr/share/arduino/hardware/arduino'
p194
sS'bootloader'
p195
(dp196
S'extended_fuses'
p197
S'0x05'
p198
sS'high_fuses'
p199
S'0xDA'
p200
sS'low_fuses'
p201
S'0xFF'
p202
sS'lock_bits'
p203
S'0x0F'
p204
sS'file'
p205
S'ATmegaBOOT_168_atmega328.hex'
p206
sS'path'
p207
S'atmega'
p208
sS'unlock_bits'
p209
S'0x3F'
p210
ssS'upload'
p211
(dp212
S'protocol'
p213
S'arduino'
p214
sS'maximum_size'
p215
S'30720'
p216
sS'speed'
p217
S'57600'
p218
ssS'name'
p219
S'Arduino Nano w/ ATmega328'
p220
sS'build'
p221
(dp222
S'core'
p223
S'arduino'
p224
sS'mcu'
p225
S'atmega328p'
p226
sS'f_cpu'
p227
S'16000000L'
p228
sS'variant'
p229
S'eightanaloginputs'
p230
ssaa(lp231
S'nano'
p232
a(dp233
g73
S'/usr/share/arduino/hardware/arduino'
p234
sS'bootloader'
p235
(dp236
S'extended_fuses'
p237
S'0x00'
p238
sS'high_fuses'
p239
S'0xdd'
p240
sS'low_fuses'
p241
S'0xff'
p242
sS'lock_bits'
p243
S'0x0F'
p244
sS'file'
p245
S'ATmegaBOOT_168_diecimila.hex'
p246
sS'path'
p247
S'atmega'
p248
sS'unlock_bits'
p249
S'0x3F'
p250
ssS'upload'
p251
(dp252
S'protocol'
p253
S'arduino'
p254
sS'maximum_size'
p255
S'14336'
p256
sS'speed'
p257
S'19200'
p258
ssS'name'
p259
S'Arduino Nano w/ ATmega168'
p260
sS'build'
p261
(dp262
S'core'
p263
S'arduino'
p264
sS'mcu'
p265
S'atmega168'
p266
sS'f_cpu'
p267
S'16000000L'
p268
sS'variant'
p269
S'eightanaloginputs'
p270
ssaa(lp271
S'mega2560'
p272
a(dp273
g73
S'/usr/share/arduino/hardware/arduino'
p274
sS'bootloader'
p275
(dp276
S'extended_fuses'
p277
S'0xFD'
p278
sS'high_fuses'
p279
S'0xD8'
p280
sS'low_fuses'
p281
S'0xFF'
p282
sS'lock_bits'
p283
S'0x0F'
p284
sS'file'
p285
S'stk500boot_v2_mega2560.hex'
p286
sS'path'
p287
S'stk500v2'
p288
sS'unlock_bits'
p289
S'0x3F'
p290
ssS'upload'
p291
(dp292
S'protocol'
p293
S'wiring'
p294
sS'maximum_size'
p295
S'258048'
p296
sS'speed'
p297
S'115200'
p298
ssS'name'
p299
S'Arduino Mega 2560 or Mega ADK'
p300
sS'build'
p301
(dp302
S'core'
p303
S'arduino'
p304
sS'mcu'
p305
S'atmega2560'
p306
sS'f_cpu'
p307
S'16000000L'
p308
sS'variant'
p309
S'mega'
p310
ssaa(lp311
S'mega'
p312
a(dp313
g73
S'/usr/share/arduino/hardware/arduino'
p314
sS'bootloader'
p315
(dp316
S'extended_fuses'
p317
S'0xF5'
p318
sS'high_fuses'
p319
S'0xDA'
p320
sS'low_fuses'
p321
S'0xFF'
p322
sS'lock_bits'
p323
S'0x0F'
p324
sS'file'
p325
S'ATmegaBOOT_168_atmega1280.hex'
p326
sS'path'
p327
S'atmega'
p328
sS'unlock_bits'
p329
S'0x3F'
p330
ssS'upload'
p331
(dp332
S'protocol'
p333
S'arduino'
p334
sS'maximum_size'
p335
S'126976'
p336
sS'speed'
p337
S'57600'
p338
ssS'name'
p339
S'Arduino Mega (ATmega1280)'
p340
sS'build'
p341
(dp342
S'core'
p343
S'arduino'
p344
sS'mcu'
p345
S'atmega1280'
p346
sS'f_cpu'
p347
S'16000000L'
p348
sS'variant'
p349
S'mega'
p350
ssaa(lp351
S'leonardo'
p352
a(dp353
g73
S'/usr/share/arduino/hardware/arduino'
p354
sS'bootloader'
p355
(dp356
S'extended_fuses'
p357
S'0xcb'
p358
sS'high_fuses'
p359
S'0xd8'
p360
sS'low_fuses'
p361
S'0xff'
p362
sS'lock_bits'
p363
S'0x2F'
p364
sS'file'
p365
S'Caterina-Leonardo.hex'
p366
sS'path'
p367
S'caterina'
p368
sS'unlock_bits'
p369
S'0x3F'
p370
ssS'upload'
p371
(dp372
S'protocol'
p373
S'avr109'
p374
sS'maximum_size'
p375
S'28672'
p376
sS'speed'
p377
S'57600'
p378
sS'disable_flushing'
p379
S'true'
p380
ssS'name'
p381
S'Arduino Leonardo'
p382
sS'build'
p383
(dp384
S'core'
p385
S'arduino'
p386
sS'f_cpu'
p387
S'16000000L'
p388
sS'vid'
p389
S'0x2341'
p390
sS'pid'
p391
S'0x8036'
p392
sS'variant'
p393
S'leonardo'
p394
sS'mcu'
p395
S'atmega32u4'
p396
ssaa(lp397
S'esplora'
p398
a(dp399
g73
S'/usr/share/arduino/hardware/arduino'
p400
sS'bootloader'
p401
(dp402
S'extended_fuses'
p403
S'0xcb'
p404
sS'high_fuses'
p405
S'0xd8'
p406
sS'low_fuses'
p407
S'0xff'
p408
sS'lock_bits'
p409
S'0x2F'
p410
sS'file'
p411
S'Caterina-Esplora.hex'
p412
sS'path'
p413
S'caterina'
p414
sS'unlock_bits'
p415
S'0x3F'
p416
ssS'upload'
p417
(dp418
S'protocol'
p419
S'avr109'
p420
sS'maximum_size'
p421
S'28672'
p422
sS'speed'
p423
S'57600'
p424
sS'disable_flushing'
p425
S'true'
p426
ssS'name'
p427
S'Arduino Esplora'
p428
sS'build'
p429
(dp430
S'core'
p431
S'arduino'
p432
sS'f_cpu'
p433
S'16000000L'
p434
sS'vid'
p435
S'0x2341'
p436
sS'pid'
p437
S'0x803C'
p438
sS'variant'
p439
S'leonardo'
p440
sS'mcu'
p441
S'atmega32u4'
p442
ssaa(lp443
S'micro'
p444
a(dp445
g73
S'/usr/share/arduino/hardware/arduino'
p446
sS'bootloader'
p447
(dp448
S'extended_fuses'
p449
S'0xcb'
p450
sS'high_fuses'
p451
S'0xd8'
p452
sS'low_fuses'
p453
S'0xff'
p454
sS'lock_bits'
p455
S'0x2F'
p456
sS'file'
p457
S'Caterina-Micro.hex'
p458
sS'path'
p459
S'caterina'
p460
sS'unlock_bits'
p461
S'0x3F'
p462
ssS'upload'
p463
(dp464
S'protocol'
p465
S'avr109'
p466
sS'maximum_size'
p467
S'28672'
p468
sS'speed'
p469
S'57600'
p470
sS'disable_flushing'
p471
S'true'
p472
ssS'name'
p473
S'Arduino Micro'
p474
sS'build'
p475
(dp476
S'core'
p477
S'arduino'
p478
sS'f_cpu'
p479
S'16000000L'
p480
sS'vid'
p481
S'0x2341'
p482
sS'pid'
p483
S'0x8037'
p484
sS'variant'
p485
S'micro'
p486
sS'mcu'
p487
S'atmega32u4'
p488
ssaa(lp489
S'mini328'
p490
a(dp491
g73
S'/usr/share/arduino/hardware/arduino'
p492
sS'bootloader'
p493
(dp494
S'extended_fuses'
p495
S'0x05'
p496
sS'high_fuses'
p497
S'0xd8'
p498
sS'low_fuses'
p499
S'0xff'
p500
sS'lock_bits'
p501
S'0x0F'
p502
sS'file'
p503
S'optiboot_atmega328-Mini.hex'
p504
sS'path'
p505
S'optiboot'
p506
sS'unlock_bits'
p507
S'0x3F'
p508
ssS'upload'
p509
(dp510
S'protocol'
p511
S'arduino'
p512
sS'maximum_size'
p513
S'28672'
p514
sS'speed'
p515
S'115200'
p516
ssS'name'
p517
S'Arduino Mini w/ ATmega328'
p518
sS'build'
p519
(dp520
S'core'
p521
S'arduino'
p522
sS'mcu'
p523
S'atmega328p'
p524
sS'f_cpu'
p525
S'16000000L'
p526
sS'variant'
p527
S'eightanaloginputs'
p528
ssaa(lp529
S'mini'
p530
a(dp531
g73
S'/usr/share/arduino/hardware/arduino'
p532
sS'bootloader'
p533
(dp534
S'extended_fuses'
p535
S'0x00'
p536
sS'high_fuses'
p537
S'0xdd'
p538
sS'low_fuses'
p539
S'0xff'
p540
sS'lock_bits'
p541
S'0x0F'
p542
sS'file'
p543
S'ATmegaBOOT_168_ng.hex'
p544
sS'path'
p545
S'atmega'
p546
sS'unlock_bits'
p547
S'0x3F'
p548
ssS'upload'
p549
(dp550
S'protocol'
p551
S'arduino'
p552
sS'maximum_size'
p553
S'14336'
p554
sS'speed'
p555
S'19200'
p556
ssS'name'
p557
S'Arduino Mini w/ ATmega168'
p558
sS'build'
p559
(dp560
S'core'
p561
S'arduino'
p562
sS'mcu'
p563
S'atmega168'
p564
sS'f_cpu'
p565
S'16000000L'
p566
sS'variant'
p567
S'eightanaloginputs'
p568
ssaa(lp569
S'ethernet'
p570
a(dp571
g73
S'/usr/share/arduino/hardware/arduino'
p572
sS'bootloader'
p573
(dp574
S'extended_fuses'
p575
S'0x05'
p576
sS'high_fuses'
p577
S'0xde'
p578
sS'low_fuses'
p579
S'0xff'
p580
sS'lock_bits'
p581
S'0x0F'
p582
sS'file'
p583
S'optiboot_atmega328.hex'
p584
sS'path'
p585
S'optiboot'
p586
sS'unlock_bits'
p587
S'0x3F'
p588
ssS'upload'
p589
(dp590
S'protocol'
p591
S'arduino'
p592
sS'maximum_size'
p593
S'32256'
p594
sS'speed'
p595
S'115200'
p596
ssS'name'
p597
S'Arduino Ethernet'
p598
sS'build'
p599
(dp600
S'variant'
p601
S'standard'
p602
sS'mcu'
p603
S'atmega328p'
p604
sS'f_cpu'
p605
S'16000000L'
p606
sS'core'
p607
S'arduino'
p608
ssaa(lp609
S'fio'
p610
a(dp611
g73
S'/usr/share/arduino/hardware/arduino'
p612
sS'bootloader'
p613
(dp614
S'extended_fuses'
p615
S'0x05'
p616
sS'high_fuses'
p617
S'0xDA'
p618
sS'low_fuses'
p619
S'0xFF'
p620
sS'lock_bits'
p621
S'0x0F'
p622
sS'file'
p623
S'ATmegaBOOT_168_atmega328_pro_8MHz.hex'
p624
sS'path'
p625
S'arduino:atmega'
p626
sS'unlock_bits'
p627
S'0x3F'
p628
ssS'upload'
p629
(dp630
S'protocol'
p631
S'arduino'
p632
sS'maximum_size'
p633
S'30720'
p634
sS'speed'
p635
S'57600'
p636
ssS'name'
p637
S'Arduino Fio'
p638
sS'build'
p639
(dp640
S'core'
p641
S'arduino'
p642
sS'mcu'
p643
S'atmega328p'
p644
sS'f_cpu'
p645
S'8000000L'
p646
sS'variant'
p647
S'eightanaloginputs'
p648
ssaa(lp649
S'bt328'
p650
a(dp651
g73
S'/usr/share/arduino/hardware/arduino'
p652
sS'bootloader'
p653
(dp654
S'extended_fuses'
p655
S'0x05'
p656
sS'high_fuses'
p657
S'0xd8'
p658
sS'low_fuses'
p659
S'0xff'
p660
sS'lock_bits'
p661
S'0x0F'
p662
sS'file'
p663
S'ATmegaBOOT_168_atmega328_bt.hex'
p664
sS'path'
p665
S'bt'
p666
sS'unlock_bits'
p667
S'0x3F'
p668
ssS'upload'
p669
(dp670
S'protocol'
p671
S'arduino'
p672
sS'maximum_size'
p673
S'28672'
p674
sS'speed'
p675
S'19200'
p676
sS'disable_flushing'
p677
S'true'
p678
ssS'name'
p679
S'Arduino BT w/ ATmega328'
p680
sS'build'
p681
(dp682
S'core'
p683
S'arduino'
p684
sS'mcu'
p685
S'atmega328p'
p686
sS'f_cpu'
p687
S'16000000L'
p688
sS'variant'
p689
S'eightanaloginputs'
p690
ssaa(lp691
S'bt'
p692
a(dp693
g73
S'/usr/share/arduino/hardware/arduino'
p694
sS'bootloader'
p695
(dp696
S'extended_fuses'
p697
S'0x00'
p698
sS'high_fuses'
p699
S'0xdd'
p700
sS'low_fuses'
p701
S'0xff'
p702
sS'lock_bits'
p703
S'0x0F'
p704
sS'file'
p705
S'ATmegaBOOT_168.hex'
p706
sS'path'
p707
S'bt'
p708
sS'unlock_bits'
p709
S'0x3F'
p710
ssS'upload'
p711
(dp712
S'protocol'
p713
S'arduino'
p714
sS'maximum_size'
p715
S'14336'
p716
sS'speed'
p717
S'19200'
p718
sS'disable_flushing'
p719
S'true'
p720
ssS'name'
p721
S'Arduino BT w/ ATmega168'
p722
sS'build'
p723
(dp724
S'core'
p725
S'arduino'
p726
sS'mcu'
p727
S'atmega168'
p728
sS'f_cpu'
p729
S'16000000L'
p730
sS'variant'
p731
S'eightanaloginputs'
p732
ssaa(lp733
S'LilyPadUSB'
p734
a(dp735
g73
S'/usr/share/arduino/hardware/arduino'
p736
sS'bootloader'
p737
(dp738
S'extended_fuses'
p739
S'0xce'
p740
sS'high_fuses'
p741
S'0xd8'
p742
sS'low_fuses'
p743
S'0xff'
p744
sS'lock_bits'
p745
S'0x2F'
p746
sS'file'
p747
S'Caterina-LilyPadUSB.hex'
p748
sS'path'
p749
S'caterina-LilyPadUSB'
p750
sS'unlock_bits'
p751
S'0x3F'
p752
ssS'upload'
p753
(dp754
S'protocol'
p755
S'avr109'
p756
sS'maximum_size'
p757
S'28672'
p758
sS'speed'
p759
S'57600'
p760
sS'disable_flushing'
p761
S'true'
p762
ssS'name'
p763
S'LilyPad Arduino USB'
p764
sS'build'
p765
(dp766
S'core'
p767
S'arduino'
p768
sS'f_cpu'
p769
S'8000000L'
p770
sS'vid'
p771
S'0x1B4F'
p772
sS'pid'
p773
S'0x9208'
p774
sS'variant'
p775
S'leonardo'
p776
sS'mcu'
p777
S'atmega32u4'
p778
ssaa(lp779
S'lilypad328'
p780
a(dp781
g73
S'/usr/share/arduino/hardware/arduino'
p782
sS'bootloader'
p783
(dp784
S'extended_fuses'
p785
S'0x05'
p786
sS'high_fuses'
p787
S'0xDA'
p788
sS'low_fuses'
p789
S'0xFF'
p790
sS'lock_bits'
p791
S'0x0F'
p792
sS'file'
p793
S'ATmegaBOOT_168_atmega328_pro_8MHz.hex'
p794
sS'path'
p795
S'atmega'
p796
sS'unlock_bits'
p797
S'0x3F'
p798
ssS'upload'
p799
(dp800
S'protocol'
p801
S'arduino'
p802
sS'maximum_size'
p803
S'30720'
p804
sS'speed'
p805
S'57600'
p806
ssS'name'
p807
S'LilyPad Arduino w/ ATmega328'
p808
sS'build'
p809
(dp810
S'core'
p811
S'arduino'
p812
sS'mcu'
p813
S'atmega328p'
p814
sS'f_cpu'
p815
S'8000000L'
p816
sS'variant'
p817
S'standard'
p818
ssaa(lp819
S'lilypad'
p820
a(dp821
g73
S'/usr/share/arduino/hardware/arduino'
p822
sS'bootloader'
p823
(dp824
S'extended_fuses'
p825
S'0x00'
p826
sS'high_fuses'
p827
S'0xdd'
p828
sS'low_fuses'
p829
S'0xe2'
p830
sS'lock_bits'
p831
S'0x0F'
p832
sS'file'
p833
S'LilyPadBOOT_168.hex'
p834
sS'path'
p835
S'lilypad'
p836
sS'unlock_bits'
p837
S'0x3F'
p838
ssS'upload'
p839
(dp840
S'protocol'
p841
S'arduino'
p842
sS'maximum_size'
p843
S'14336'
p844
sS'speed'
p845
S'19200'
p846
ssS'name'
p847
S'LilyPad Arduino w/ ATmega168'
p848
sS'build'
p849
(dp850
S'core'
p851
S'arduino'
p852
sS'mcu'
p853
S'atmega168'
p854
sS'f_cpu'
p855
S'8000000L'
p856
sS'variant'
p857
S'standard'
p858
ssaa(lp859
S'pro5v328'
p860
a(dp861
g73
S'/usr/share/arduino/hardware/arduino'
p862
sS'bootloader'
p863
(dp864
S'extended_fuses'
p865
S'0x05'
p866
sS'high_fuses'
p867
S'0xDA'
p868
sS'low_fuses'
p869
S'0xFF'
p870
sS'lock_bits'
p871
S'0x0F'
p872
sS'file'
p873
S'ATmegaBOOT_168_atmega328.hex'
p874
sS'path'
p875
S'atmega'
p876
sS'unlock_bits'
p877
S'0x3F'
p878
ssS'upload'
p879
(dp880
S'protocol'
p881
S'arduino'
p882
sS'maximum_size'
p883
S'30720'
p884
sS'speed'
p885
S'57600'
p886
ssS'name'
p887
S'Arduino Pro or Pro Mini (5V, 16 MHz) w/ ATmega328'
p888
sS'build'
p889
(dp890
S'core'
p891
S'arduino'
p892
sS'mcu'
p893
S'atmega328p'
p894
sS'f_cpu'
p895
S'16000000L'
p896
sS'variant'
p897
S'standard'
p898
ssaa(lp899
S'pro5v'
p900
a(dp901
g73
S'/usr/share/arduino/hardware/arduino'
p902
sS'bootloader'
p903
(dp904
S'extended_fuses'
p905
S'0x00'
p906
sS'high_fuses'
p907
S'0xdd'
p908
sS'low_fuses'
p909
S'0xff'
p910
sS'lock_bits'
p911
S'0x0F'
p912
sS'file'
p913
S'ATmegaBOOT_168_diecimila.hex'
p914
sS'path'
p915
S'atmega'
p916
sS'unlock_bits'
p917
S'0x3F'
p918
ssS'upload'
p919
(dp920
S'protocol'
p921
S'arduino'
p922
sS'maximum_size'
p923
S'14336'
p924
sS'speed'
p925
S'19200'
p926
ssS'name'
p927
S'Arduino Pro or Pro Mini (5V, 16 MHz) w/ ATmega168'
p928
sS'build'
p929
(dp930
S'core'
p931
S'arduino'
p932
sS'mcu'
p933
S'atmega168'
p934
sS'f_cpu'
p935
S'16000000L'
p936
sS'variant'
p937
S'standard'
p938
ssaa(lp939
S'pro328'
p940
a(dp941
g73
S'/usr/share/arduino/hardware/arduino'
p942
sS'bootloader'
p943
(dp944
S'extended_fuses'
p945
S'0x05'
p946
sS'high_fuses'
p947
S'0xDA'
p948
sS'low_fuses'
p949
S'0xFF'
p950
sS'lock_bits'
p951
S'0x0F'
p952
sS'file'
p953
S'ATmegaBOOT_168_atmega328_pro_8MHz.hex'
p954
sS'path'
p955
S'atmega'
p956
sS'unlock_bits'
p957
S'0x3F'
p958
ssS'upload'
p959
(dp960
S'protocol'
p961
S'arduino'
p962
sS'maximum_size'
p963
S'30720'
p964
sS'speed'
p965
S'57600'
p966
ssS'name'
p967
S'Arduino Pro or Pro Mini (3.3V, 8 MHz) w/ ATmega328'
p968
sS'build'
p969
(dp970
S'core'
p971
S'arduino'
p972
sS'mcu'
p973
S'atmega328p'
p974
sS'f_cpu'
p975
S'8000000L'
p976
sS'variant'
p977
S'standard'
p978
ssaa(lp979
S'pro'
p980
a(dp981
g73
S'/usr/share/arduino/hardware/arduino'
p982
sS'bootloader'
p983
(dp984
S'extended_fuses'
p985
S'0x00'
p986
sS'high_fuses'
p987
S'0xdd'
p988
sS'low_fuses'
p989
S'0xc6'
p990
sS'lock_bits'
p991
S'0x0F'
p992
sS'file'
p993
S'ATmegaBOOT_168_pro_8MHz.hex'
p994
sS'path'
p995
S'atmega'
p996
sS'unlock_bits'
p997
S'0x3F'
p998
ssS'upload'
p999
(dp1000
S'protocol'
p1001
S'arduino'
p1002
sS'maximum_size'
p1003
S'14336'
p1004
sS'speed'
p1005
S'19200'
p1006
ssS'name'
p1007
S'Arduino Pro or Pro Mini (3.3V, 8 MHz) w/ ATmega168'
p1008
sS'build'
p1009
(dp1010
S'core'
p1011
S'arduino'
p1012
sS'mcu'
p1013
S'atmega168'
p1014
sS'f_cpu'
p1015
S'8000000L'
p1016
sS'variant'
p1017
S'standard'
p1018
ssaa(lp1019
S'atmega168'
p1020
a(dp1021
g73
S'/usr/share/arduino/hardware/arduino'
p1022
sS'bootloader'
p1023
(dp1024
S'extended_fuses'
p1025
S'0x00'
p1026
sS'high_fuses'
p1027
S'0xdd'
p1028
sS'low_fuses'
p1029
S'0xff'
p1030
sS'lock_bits'
p1031
S'0x0F'
p1032
sS'file'
p1033
S'ATmegaBOOT_168_ng.hex'
p1034
sS'path'
p1035
S'atmega'
p1036
sS'unlock_bits'
p1037
S'0x3F'
p1038
ssS'upload'
p1039
(dp1040
S'protocol'
p1041
S'arduino'
p1042
sS'maximum_size'
p1043
S'14336'
p1044
sS'speed'
p1045
S'19200'
p1046
ssS'name'
p1047
S'Arduino NG or older w/ ATmega168'
p1048
sS'build'
p1049
(dp1050
S'core'
p1051
S'arduino'
p1052
sS'mcu'
p1053
S'atmega168'
p1054
sS'f_cpu'
p1055
S'16000000L'
p1056
sS'variant'
p1057
S'standard'
p1058
ssaa(lp1059
S'atmega8'
p1060
a(dp1061
g73
S'/usr/share/arduino/hardware/arduino'
p1062
sS'bootloader'
p1063
(dp1064
S'high_fuses'
p1065
S'0xca'
p1066
sS'low_fuses'
p1067
S'0xdf'
p1068
sS'lock_bits'
p1069
S'0x0F'
p1070
sS'file'
p1071
S'ATmegaBOOT-prod-firmware-2009-11-07.hex'
p1072
sS'path'
p1073
S'atmega8'
p1074
sS'unlock_bits'
p1075
S'0x3F'
p1076
ssS'upload'
p1077
(dp1078
S'protocol'
p1079
S'arduino'
p1080
sS'maximum_size'
p1081
S'7168'
p1082
sS'speed'
p1083
S'19200'
p1084
ssS'name'
p1085
S'Arduino NG or older w/ ATmega8'
p1086
sS'build'
p1087
(dp1088
S'core'
p1089
S'arduino'
p1090
sS'mcu'
p1091
S'atmega8'
p1092
sS'f_cpu'
p1093
S'16000000L'
p1094
sS'variant'
p1095
S'standard'
p1096
ssaa(lp1097
S'robotControl'
p1098
a(dp1099
g73
S'/usr/share/arduino/hardware/arduino'
p1100
sS'bootloader'
p1101
(dp1102
S'extended_fuses'
p1103
S'0xcb'
p1104
sS'high_fuses'
p1105
S'0xd8'
p1106
sS'low_fuses'
p1107
S'0xff'
p1108
sS'lock_bits'
p1109
S'0x2F'
p1110
sS'file'
p1111
S'Caterina-Robot-Control.hex'
p1112
sS'path'
p1113
S'caterina-Arduino_Robot'
p1114
sS'unlock_bits'
p1115
S'0x3F'
p1116
ssS'upload'
p1117
(dp1118
S'protocol'
p1119
S'avr109'
p1120
sS'maximum_size'
p1121
S'28672'
p1122
sS'speed'
p1123
S'57600'
p1124
sS'disable_flushing'
p1125
S'true'
p1126
ssS'name'
p1127
S'Arduino Robot Control'
p1128
sS'build'
p1129
(dp1130
S'core'
p1131
S'robot'
p1132
sS'f_cpu'
p1133
S'16000000L'
p1134
sS'vid'
p1135
S'0x2341'
p1136
sS'pid'
p1137
S'0x8038'
p1138
sS'variant'
p1139
S'robot_control'
p1140
sS'mcu'
p1141
S'atmega32u4'
p1142
ssaa(lp1143
S'robotMotor'
p1144
a(dp1145
g73
S'/usr/share/arduino/hardware/arduino'
p1146
sS'bootloader'
p1147
(dp1148
S'extended_fuses'
p1149
S'0xcb'
p1150
sS'high_fuses'
p1151
S'0xd8'
p1152
sS'low_fuses'
p1153
S'0xff'
p1154
sS'lock_bits'
p1155
S'0x2F'
p1156
sS'file'
p1157
S'Caterina-Robot-Motor.hex'
p1158
sS'path'
p1159
S'caterina-Arduino_Robot'
p1160
sS'unlock_bits'
p1161
S'0x3F'
p1162
ssS'upload'
p1163
(dp1164
S'protocol'
p1165
S'avr109'
p1166
sS'maximum_size'
p1167
S'28672'
p1168
sS'speed'
p1169
S'57600'
p1170
sS'disable_flushing'
p1171
S'true'
p1172
ssS'name'
p1173
S'Arduino Robot Motor'
p1174
sS'build'
p1175
(dp1176
S'core'
p1177
S'robot'
p1178
sS'f_cpu'
p1179
S'16000000L'
p1180
sS'vid'
p1181
S'0x2341'
p1182
sS'pid'
p1183
S'0x8039'
p1184
sS'variant'
p1185
S'robot_motor'
p1186
sS'mcu'
p1187
S'atmega32u4'
p1188
ssaatp1189
Rp1190
(dp1191
S'default'
p1192
S'uno'
p1193
sbtp1194
a(S'used_libs'
p1195
(lp1196
S'lib/aJson'
p1197
aS'lib/Tlc5940-master'
p1198
aS'lib/SimpleTimer'
p1199
aS'/usr/share/arduino/libraries/SoftwareSerial'
p1200
aS'/usr/share/arduino/hardware/arduino/cores/arduino'
p1201
atp1202
a(S'make'
p1203
S'/usr/share/arduino/hardware/tools/avr/bin/make'
p1204
tp1205
a(S'build_dir'
p1206
S'.build/uno'
p1207
tp1208
a(S'cc'
p1209
S'/usr/share/arduino/hardware/tools/avr/bin/avr-gcc'
p1210
tp1211
a(S'cflags'
p1212
g2
(g3
g4
(lp1213
tp1214
Rp1215
tp1216
a(S'cxxflags'
p1217
g2
(g3
g4
(lp1218
S'-fno-exceptions'
p1219
atp1220
Rp1221
tp1222
a(S'arduino_variants_dir'
p1223
S'/usr/share/arduino/hardware/arduino/variants'
p1224
tp1225
a(S'stty'
p1226
S'/bin/stty'
p1227
tp1228
a(S'version.txt'
p1229
S'/usr/share/arduino/lib/version.txt'
p1230
tp1231
a(S'arduino_core_dir'
p1232
g1201
tp1233
a(S'boards.txt'
p1234
(lp1235
S'/usr/share/arduino/hardware/arduino/boards.txt'
p1236
atp1237
a(S'avrdude.conf'
p1238
S'/usr/share/arduino/hardware/tools/avrdude.conf'
p1239
tp1240
a(S'deps'
p1241
g2
(g3
g4
(lp1242
S'.build/uno/src/dependencies.d'
p1243
aS'.build/uno/arduino/dependencies.d'
p1244
aS'.build/uno/aJson/dependencies.d'
p1245
aS'.build/uno/Tlc5940-master/dependencies.d'
p1246
aS'.build/uno/SimpleTimer/dependencies.d'
p1247
aS'.build/uno/SoftwareSerial/dependencies.d'
p1248
atp1249
Rp1250
tp1251
a.