(lp0
(S'cppflags'
p1
ccopy_reg
_reconstructor
p2
(cino.utils
SpaceList
p3
c__builtin__
list
p4
(lp5
S'-mmcu=atmega328p'
p6
aS'-DF_CPU=16000000L'
p7
aS'-DARDUINO=105'
p8
aS'-I/usr/share/arduino/hardware/arduino/cores/arduino'
p9
aS'-ffunction-sections'
p10
aS'-fdata-sections'
p11
aS'-g'
p12
aS'-Os'
p13
aS'-w'
p14
aS'-I/usr/share/arduino/hardware/arduino/variants/standard'
p15
aS'-Ilib/aJson'
p16
aS'-Ilib/aJson/utility'
p17
aS'-Ilib/Tlc5940-master'
p18
aS'-Ilib/Tlc5940-master/pinouts'
p19
aS'-Ilib/SimpleTimer'
p20
aS'-I/usr/share/arduino/libraries/SoftwareSerial'
p21
aS'-I/usr/share/arduino/hardware/arduino/cores/arduino'
p22
aS'-I/usr/share/arduino/hardware/arduino/cores/arduino/avr-libc'
p23
atp24
Rp25
tp26
a(S'cxx'
p27
S'/usr/share/arduino/hardware/tools/avr/bin/avr-g++'
p28
tp29
a(S'arduino_libraries_dir'
p30
S'/usr/share/arduino/libraries'
p31
tp32
a(S'avrdude'
p33
S'/usr/share/arduino/hardware/tools/avrdude'
p34
tp35
a(S'ar'
p36
S'/usr/share/arduino/hardware/tools/avr/bin/avr-ar'
p37
tp38
a(S'names'
p39
(dp40
S'cpp'
p41
S'%s.cpp'
p42
sS'obj'
p43
S'%s.o'
p44
sS'lib'
p45
S'lib%s.a'
p46
sS'deps'
p47
S'%s.d'
p48
stp49
a(S'ldflags'
p50
g2
(g3
g4
(lp51
g6
aS'-Wl,-Os'
p52
aS'-Wl,--gc-sections'
p53
atp54
Rp55
tp56
a(S'arduino_lib_version'
p57
g2
(cino.environment
Version
p58
c__builtin__
tuple
p59
(I1
I0
I5
tp60
tp61
Rp62
tp63
a(S'objcopy'
p64
S'/usr/share/arduino/hardware/tools/avr/bin/avr-objcopy'
p65
tp66
a(S'board_models'
p67
cino.environment
BoardModels
p68
((lp69
(lp70
S'uno'
p71
a(dp72
S'_coredir'
p73
S'/usr/share/arduino/hardware/arduino'
p74
sS'bootloader'
p75
(dp76
S'extended_fuses'
p77
S'0x05'
p78
sS'high_fuses'
p79
S'0xde'
p80
sS'low_fuses'
p81
S'0xff'
p82
sS'lock_bits'
p83
S'0x0F'
p84
sS'file'
p85
S'optiboot_atmega328.hex'
p86
sS'path'
p87
S'optiboot'
p88
sS'unlock_bits'
p89
S'0x3F'
p90
ssS'build'
p91
(dp92
S'core'
p93
S'arduino'
p94
sS'mcu'
p95
S'atmega328p'
p96
sS'f_cpu'
p97
S'16000000L'
p98
sS'variant'
p99
S'standard'
p100
ssS'name'
p101
S'Arduino Uno'
p102
sS'upload'
p103
(dp104
S'protocol'
p105
S'arduino'
p106
sS'maximum_size'
p107
S'32256'
p108
sS'speed'
p109
S'115200'
p110
ssaa(lp111
S'atmega328'
p112
a(dp113
g73
S'/usr/share/arduino/hardware/arduino'
p114
sS'bootloader'
p115
(dp116
S'extended_fuses'
p117
S'0x05'
p118
sS'high_fuses'
p119
S'0xDA'
p120
sS'low_fuses'
p121
S'0xFF'
p122
sS'lock_bits'
p123
S'0x0F'
p124
sS'file'
p125
S'ATmegaBOOT_168_atmega328.hex'
p126
sS'path'
p127
S'atmega'
p128
sS'unlock_bits'
p129
S'0x3F'
p130
ssS'build'
p131
(dp132
S'core'
p133
S'arduino'
p134
sS'mcu'
p135
S'atmega328p'
p136
sS'f_cpu'
p137
S'16000000L'
p138
sS'variant'
p139
S'standard'
p140
ssS'name'
p141
S'Arduino Duemilanove w/ ATmega328'
p142
sS'upload'
p143
(dp144
S'protocol'
p145
S'arduino'
p146
sS'maximum_size'
p147
S'30720'
p148
sS'speed'
p149
S'57600'
p150
ssaa(lp151
S'diecimila'
p152
a(dp153
g73
S'/usr/share/arduino/hardware/arduino'
p154
sS'bootloader'
p155
(dp156
S'extended_fuses'
p157
S'0x00'
p158
sS'high_fuses'
p159
S'0xdd'
p160
sS'low_fuses'
p161
S'0xff'
p162
sS'lock_bits'
p163
S'0x0F'
p164
sS'file'
p165
S'ATmegaBOOT_168_diecimila.hex'
p166
sS'path'
p167
S'atmega'
p168
sS'unlock_bits'
p169
S'0x3F'
p170
ssS'build'
p171
(dp172
S'core'
p173
S'arduino'
p174
sS'mcu'
p175
S'atmega168'
p176
sS'f_cpu'
p177
S'16000000L'
p178
sS'variant'
p179
S'standard'
p180
ssS'name'
p181
S'Arduino Diecimila or Duemilanove w/ ATmega168'
p182
sS'upload'
p183
(dp184
S'protocol'
p185
S'arduino'
p186
sS'maximum_size'
p187
S'14336'
p188
sS'speed'
p189
S'19200'
p190
ssaa(lp191
S'nano328'
p192
a(dp193
g73
S'/usr/share/arduino/hardware/arduino'
p194
sS'bootloader'
p195
(dp196
S'extended_fuses'
p197
S'0x05'
p198
sS'high_fuses'
p199
S'0xDA'
p200
sS'low_fuses'
p201
S'0xFF'
p202
sS'lock_bits'
p203
S'0x0F'
p204
sS'file'
p205
S'ATmegaBOOT_168_atmega328.hex'
p206
sS'path'
p207
S'atmega'
p208
sS'unlock_bits'
p209
S'0x3F'
p210
ssS'build'
p211
(dp212
S'core'
p213
S'arduino'
p214
sS'mcu'
p215
S'atmega328p'
p216
sS'f_cpu'
p217
S'16000000L'
p218
sS'variant'
p219
S'eightanaloginputs'
p220
ssS'name'
p221
S'Arduino Nano w/ ATmega328'
p222
sS'upload'
p223
(dp224
S'protocol'
p225
S'arduino'
p226
sS'maximum_size'
p227
S'30720'
p228
sS'speed'
p229
S'57600'
p230
ssaa(lp231
S'nano'
p232
a(dp233
g73
S'/usr/share/arduino/hardware/arduino'
p234
sS'bootloader'
p235
(dp236
S'extended_fuses'
p237
S'0x00'
p238
sS'high_fuses'
p239
S'0xdd'
p240
sS'low_fuses'
p241
S'0xff'
p242
sS'lock_bits'
p243
S'0x0F'
p244
sS'file'
p245
S'ATmegaBOOT_168_diecimila.hex'
p246
sS'path'
p247
S'atmega'
p248
sS'unlock_bits'
p249
S'0x3F'
p250
ssS'build'
p251
(dp252
S'core'
p253
S'arduino'
p254
sS'mcu'
p255
S'atmega168'
p256
sS'f_cpu'
p257
S'16000000L'
p258
sS'variant'
p259
S'eightanaloginputs'
p260
ssS'name'
p261
S'Arduino Nano w/ ATmega168'
p262
sS'upload'
p263
(dp264
S'protocol'
p265
S'arduino'
p266
sS'maximum_size'
p267
S'14336'
p268
sS'speed'
p269
S'19200'
p270
ssaa(lp271
S'mega2560'
p272
a(dp273
g73
S'/usr/share/arduino/hardware/arduino'
p274
sS'bootloader'
p275
(dp276
S'extended_fuses'
p277
S'0xFD'
p278
sS'high_fuses'
p279
S'0xD8'
p280
sS'low_fuses'
p281
S'0xFF'
p282
sS'lock_bits'
p283
S'0x0F'
p284
sS'file'
p285
S'stk500boot_v2_mega2560.hex'
p286
sS'path'
p287
S'stk500v2'
p288
sS'unlock_bits'
p289
S'0x3F'
p290
ssS'build'
p291
(dp292
S'core'
p293
S'arduino'
p294
sS'mcu'
p295
S'atmega2560'
p296
sS'f_cpu'
p297
S'16000000L'
p298
sS'variant'
p299
S'mega'
p300
ssS'name'
p301
S'Arduino Mega 2560 or Mega ADK'
p302
sS'upload'
p303
(dp304
S'protocol'
p305
S'wiring'
p306
sS'maximum_size'
p307
S'258048'
p308
sS'speed'
p309
S'115200'
p310
ssaa(lp311
S'mega'
p312
a(dp313
g73
S'/usr/share/arduino/hardware/arduino'
p314
sS'bootloader'
p315
(dp316
S'extended_fuses'
p317
S'0xF5'
p318
sS'high_fuses'
p319
S'0xDA'
p320
sS'low_fuses'
p321
S'0xFF'
p322
sS'lock_bits'
p323
S'0x0F'
p324
sS'file'
p325
S'ATmegaBOOT_168_atmega1280.hex'
p326
sS'path'
p327
S'atmega'
p328
sS'unlock_bits'
p329
S'0x3F'
p330
ssS'build'
p331
(dp332
S'core'
p333
S'arduino'
p334
sS'mcu'
p335
S'atmega1280'
p336
sS'f_cpu'
p337
S'16000000L'
p338
sS'variant'
p339
S'mega'
p340
ssS'name'
p341
S'Arduino Mega (ATmega1280)'
p342
sS'upload'
p343
(dp344
S'protocol'
p345
S'arduino'
p346
sS'maximum_size'
p347
S'126976'
p348
sS'speed'
p349
S'57600'
p350
ssaa(lp351
S'leonardo'
p352
a(dp353
g73
S'/usr/share/arduino/hardware/arduino'
p354
sS'bootloader'
p355
(dp356
S'extended_fuses'
p357
S'0xcb'
p358
sS'high_fuses'
p359
S'0xd8'
p360
sS'low_fuses'
p361
S'0xff'
p362
sS'lock_bits'
p363
S'0x2F'
p364
sS'file'
p365
S'Caterina-Leonardo.hex'
p366
sS'path'
p367
S'caterina'
p368
sS'unlock_bits'
p369
S'0x3F'
p370
ssS'build'
p371
(dp372
S'core'
p373
S'arduino'
p374
sS'f_cpu'
p375
S'16000000L'
p376
sS'vid'
p377
S'0x2341'
p378
sS'pid'
p379
S'0x8036'
p380
sS'variant'
p381
S'leonardo'
p382
sS'mcu'
p383
S'atmega32u4'
p384
ssS'name'
p385
S'Arduino Leonardo'
p386
sS'upload'
p387
(dp388
S'protocol'
p389
S'avr109'
p390
sS'maximum_size'
p391
S'28672'
p392
sS'speed'
p393
S'57600'
p394
sS'disable_flushing'
p395
S'true'
p396
ssaa(lp397
S'esplora'
p398
a(dp399
g73
S'/usr/share/arduino/hardware/arduino'
p400
sS'bootloader'
p401
(dp402
S'extended_fuses'
p403
S'0xcb'
p404
sS'high_fuses'
p405
S'0xd8'
p406
sS'low_fuses'
p407
S'0xff'
p408
sS'lock_bits'
p409
S'0x2F'
p410
sS'file'
p411
S'Caterina-Esplora.hex'
p412
sS'path'
p413
S'caterina'
p414
sS'unlock_bits'
p415
S'0x3F'
p416
ssS'build'
p417
(dp418
S'core'
p419
S'arduino'
p420
sS'f_cpu'
p421
S'16000000L'
p422
sS'vid'
p423
S'0x2341'
p424
sS'pid'
p425
S'0x803C'
p426
sS'variant'
p427
S'leonardo'
p428
sS'mcu'
p429
S'atmega32u4'
p430
ssS'name'
p431
S'Arduino Esplora'
p432
sS'upload'
p433
(dp434
S'protocol'
p435
S'avr109'
p436
sS'maximum_size'
p437
S'28672'
p438
sS'speed'
p439
S'57600'
p440
sS'disable_flushing'
p441
S'true'
p442
ssaa(lp443
S'micro'
p444
a(dp445
g73
S'/usr/share/arduino/hardware/arduino'
p446
sS'bootloader'
p447
(dp448
S'extended_fuses'
p449
S'0xcb'
p450
sS'high_fuses'
p451
S'0xd8'
p452
sS'low_fuses'
p453
S'0xff'
p454
sS'lock_bits'
p455
S'0x2F'
p456
sS'file'
p457
S'Caterina-Micro.hex'
p458
sS'path'
p459
S'caterina'
p460
sS'unlock_bits'
p461
S'0x3F'
p462
ssS'build'
p463
(dp464
S'core'
p465
S'arduino'
p466
sS'f_cpu'
p467
S'16000000L'
p468
sS'vid'
p469
S'0x2341'
p470
sS'pid'
p471
S'0x8037'
p472
sS'variant'
p473
S'micro'
p474
sS'mcu'
p475
S'atmega32u4'
p476
ssS'name'
p477
S'Arduino Micro'
p478
sS'upload'
p479
(dp480
S'protocol'
p481
S'avr109'
p482
sS'maximum_size'
p483
S'28672'
p484
sS'speed'
p485
S'57600'
p486
sS'disable_flushing'
p487
S'true'
p488
ssaa(lp489
S'mini328'
p490
a(dp491
g73
S'/usr/share/arduino/hardware/arduino'
p492
sS'bootloader'
p493
(dp494
S'extended_fuses'
p495
S'0x05'
p496
sS'high_fuses'
p497
S'0xd8'
p498
sS'low_fuses'
p499
S'0xff'
p500
sS'lock_bits'
p501
S'0x0F'
p502
sS'file'
p503
S'optiboot_atmega328-Mini.hex'
p504
sS'path'
p505
S'optiboot'
p506
sS'unlock_bits'
p507
S'0x3F'
p508
ssS'build'
p509
(dp510
S'core'
p511
S'arduino'
p512
sS'mcu'
p513
S'atmega328p'
p514
sS'f_cpu'
p515
S'16000000L'
p516
sS'variant'
p517
S'eightanaloginputs'
p518
ssS'name'
p519
S'Arduino Mini w/ ATmega328'
p520
sS'upload'
p521
(dp522
S'protocol'
p523
S'arduino'
p524
sS'maximum_size'
p525
S'28672'
p526
sS'speed'
p527
S'115200'
p528
ssaa(lp529
S'mini'
p530
a(dp531
g73
S'/usr/share/arduino/hardware/arduino'
p532
sS'bootloader'
p533
(dp534
S'extended_fuses'
p535
S'0x00'
p536
sS'high_fuses'
p537
S'0xdd'
p538
sS'low_fuses'
p539
S'0xff'
p540
sS'lock_bits'
p541
S'0x0F'
p542
sS'file'
p543
S'ATmegaBOOT_168_ng.hex'
p544
sS'path'
p545
S'atmega'
p546
sS'unlock_bits'
p547
S'0x3F'
p548
ssS'build'
p549
(dp550
S'core'
p551
S'arduino'
p552
sS'mcu'
p553
S'atmega168'
p554
sS'f_cpu'
p555
S'16000000L'
p556
sS'variant'
p557
S'eightanaloginputs'
p558
ssS'name'
p559
S'Arduino Mini w/ ATmega168'
p560
sS'upload'
p561
(dp562
S'protocol'
p563
S'arduino'
p564
sS'maximum_size'
p565
S'14336'
p566
sS'speed'
p567
S'19200'
p568
ssaa(lp569
S'ethernet'
p570
a(dp571
g73
S'/usr/share/arduino/hardware/arduino'
p572
sS'bootloader'
p573
(dp574
S'extended_fuses'
p575
S'0x05'
p576
sS'high_fuses'
p577
S'0xde'
p578
sS'low_fuses'
p579
S'0xff'
p580
sS'lock_bits'
p581
S'0x0F'
p582
sS'file'
p583
S'optiboot_atmega328.hex'
p584
sS'path'
p585
S'optiboot'
p586
sS'unlock_bits'
p587
S'0x3F'
p588
ssS'build'
p589
(dp590
S'variant'
p591
S'standard'
p592
sS'mcu'
p593
S'atmega328p'
p594
sS'f_cpu'
p595
S'16000000L'
p596
sS'core'
p597
S'arduino'
p598
ssS'name'
p599
S'Arduino Ethernet'
p600
sS'upload'
p601
(dp602
S'protocol'
p603
S'arduino'
p604
sS'maximum_size'
p605
S'32256'
p606
sS'speed'
p607
S'115200'
p608
ssaa(lp609
S'fio'
p610
a(dp611
g73
S'/usr/share/arduino/hardware/arduino'
p612
sS'bootloader'
p613
(dp614
S'extended_fuses'
p615
S'0x05'
p616
sS'high_fuses'
p617
S'0xDA'
p618
sS'low_fuses'
p619
S'0xFF'
p620
sS'lock_bits'
p621
S'0x0F'
p622
sS'file'
p623
S'ATmegaBOOT_168_atmega328_pro_8MHz.hex'
p624
sS'path'
p625
S'arduino:atmega'
p626
sS'unlock_bits'
p627
S'0x3F'
p628
ssS'build'
p629
(dp630
S'core'
p631
S'arduino'
p632
sS'mcu'
p633
S'atmega328p'
p634
sS'f_cpu'
p635
S'8000000L'
p636
sS'variant'
p637
S'eightanaloginputs'
p638
ssS'name'
p639
S'Arduino Fio'
p640
sS'upload'
p641
(dp642
S'protocol'
p643
S'arduino'
p644
sS'maximum_size'
p645
S'30720'
p646
sS'speed'
p647
S'57600'
p648
ssaa(lp649
S'bt328'
p650
a(dp651
g73
S'/usr/share/arduino/hardware/arduino'
p652
sS'bootloader'
p653
(dp654
S'extended_fuses'
p655
S'0x05'
p656
sS'high_fuses'
p657
S'0xd8'
p658
sS'low_fuses'
p659
S'0xff'
p660
sS'lock_bits'
p661
S'0x0F'
p662
sS'file'
p663
S'ATmegaBOOT_168_atmega328_bt.hex'
p664
sS'path'
p665
S'bt'
p666
sS'unlock_bits'
p667
S'0x3F'
p668
ssS'build'
p669
(dp670
S'core'
p671
S'arduino'
p672
sS'mcu'
p673
S'atmega328p'
p674
sS'f_cpu'
p675
S'16000000L'
p676
sS'variant'
p677
S'eightanaloginputs'
p678
ssS'name'
p679
S'Arduino BT w/ ATmega328'
p680
sS'upload'
p681
(dp682
S'protocol'
p683
S'arduino'
p684
sS'maximum_size'
p685
S'28672'
p686
sS'speed'
p687
S'19200'
p688
sS'disable_flushing'
p689
S'true'
p690
ssaa(lp691
S'bt'
p692
a(dp693
g73
S'/usr/share/arduino/hardware/arduino'
p694
sS'bootloader'
p695
(dp696
S'extended_fuses'
p697
S'0x00'
p698
sS'high_fuses'
p699
S'0xdd'
p700
sS'low_fuses'
p701
S'0xff'
p702
sS'lock_bits'
p703
S'0x0F'
p704
sS'file'
p705
S'ATmegaBOOT_168.hex'
p706
sS'path'
p707
S'bt'
p708
sS'unlock_bits'
p709
S'0x3F'
p710
ssS'build'
p711
(dp712
S'core'
p713
S'arduino'
p714
sS'mcu'
p715
S'atmega168'
p716
sS'f_cpu'
p717
S'16000000L'
p718
sS'variant'
p719
S'eightanaloginputs'
p720
ssS'name'
p721
S'Arduino BT w/ ATmega168'
p722
sS'upload'
p723
(dp724
S'protocol'
p725
S'arduino'
p726
sS'maximum_size'
p727
S'14336'
p728
sS'speed'
p729
S'19200'
p730
sS'disable_flushing'
p731
S'true'
p732
ssaa(lp733
S'LilyPadUSB'
p734
a(dp735
g73
S'/usr/share/arduino/hardware/arduino'
p736
sS'bootloader'
p737
(dp738
S'extended_fuses'
p739
S'0xce'
p740
sS'high_fuses'
p741
S'0xd8'
p742
sS'low_fuses'
p743
S'0xff'
p744
sS'lock_bits'
p745
S'0x2F'
p746
sS'file'
p747
S'Caterina-LilyPadUSB.hex'
p748
sS'path'
p749
S'caterina-LilyPadUSB'
p750
sS'unlock_bits'
p751
S'0x3F'
p752
ssS'build'
p753
(dp754
S'core'
p755
S'arduino'
p756
sS'f_cpu'
p757
S'8000000L'
p758
sS'vid'
p759
S'0x1B4F'
p760
sS'pid'
p761
S'0x9208'
p762
sS'variant'
p763
S'leonardo'
p764
sS'mcu'
p765
S'atmega32u4'
p766
ssS'name'
p767
S'LilyPad Arduino USB'
p768
sS'upload'
p769
(dp770
S'protocol'
p771
S'avr109'
p772
sS'maximum_size'
p773
S'28672'
p774
sS'speed'
p775
S'57600'
p776
sS'disable_flushing'
p777
S'true'
p778
ssaa(lp779
S'lilypad328'
p780
a(dp781
g73
S'/usr/share/arduino/hardware/arduino'
p782
sS'bootloader'
p783
(dp784
S'extended_fuses'
p785
S'0x05'
p786
sS'high_fuses'
p787
S'0xDA'
p788
sS'low_fuses'
p789
S'0xFF'
p790
sS'lock_bits'
p791
S'0x0F'
p792
sS'file'
p793
S'ATmegaBOOT_168_atmega328_pro_8MHz.hex'
p794
sS'path'
p795
S'atmega'
p796
sS'unlock_bits'
p797
S'0x3F'
p798
ssS'build'
p799
(dp800
S'core'
p801
S'arduino'
p802
sS'mcu'
p803
S'atmega328p'
p804
sS'f_cpu'
p805
S'8000000L'
p806
sS'variant'
p807
S'standard'
p808
ssS'name'
p809
S'LilyPad Arduino w/ ATmega328'
p810
sS'upload'
p811
(dp812
S'protocol'
p813
S'arduino'
p814
sS'maximum_size'
p815
S'30720'
p816
sS'speed'
p817
S'57600'
p818
ssaa(lp819
S'lilypad'
p820
a(dp821
g73
S'/usr/share/arduino/hardware/arduino'
p822
sS'bootloader'
p823
(dp824
S'extended_fuses'
p825
S'0x00'
p826
sS'high_fuses'
p827
S'0xdd'
p828
sS'low_fuses'
p829
S'0xe2'
p830
sS'lock_bits'
p831
S'0x0F'
p832
sS'file'
p833
S'LilyPadBOOT_168.hex'
p834
sS'path'
p835
S'lilypad'
p836
sS'unlock_bits'
p837
S'0x3F'
p838
ssS'build'
p839
(dp840
S'core'
p841
S'arduino'
p842
sS'mcu'
p843
S'atmega168'
p844
sS'f_cpu'
p845
S'8000000L'
p846
sS'variant'
p847
S'standard'
p848
ssS'name'
p849
S'LilyPad Arduino w/ ATmega168'
p850
sS'upload'
p851
(dp852
S'protocol'
p853
S'arduino'
p854
sS'maximum_size'
p855
S'14336'
p856
sS'speed'
p857
S'19200'
p858
ssaa(lp859
S'pro5v328'
p860
a(dp861
g73
S'/usr/share/arduino/hardware/arduino'
p862
sS'bootloader'
p863
(dp864
S'extended_fuses'
p865
S'0x05'
p866
sS'high_fuses'
p867
S'0xDA'
p868
sS'low_fuses'
p869
S'0xFF'
p870
sS'lock_bits'
p871
S'0x0F'
p872
sS'file'
p873
S'ATmegaBOOT_168_atmega328.hex'
p874
sS'path'
p875
S'atmega'
p876
sS'unlock_bits'
p877
S'0x3F'
p878
ssS'build'
p879
(dp880
S'core'
p881
S'arduino'
p882
sS'mcu'
p883
S'atmega328p'
p884
sS'f_cpu'
p885
S'16000000L'
p886
sS'variant'
p887
S'standard'
p888
ssS'name'
p889
S'Arduino Pro or Pro Mini (5V, 16 MHz) w/ ATmega328'
p890
sS'upload'
p891
(dp892
S'protocol'
p893
S'arduino'
p894
sS'maximum_size'
p895
S'30720'
p896
sS'speed'
p897
S'57600'
p898
ssaa(lp899
S'pro5v'
p900
a(dp901
g73
S'/usr/share/arduino/hardware/arduino'
p902
sS'bootloader'
p903
(dp904
S'extended_fuses'
p905
S'0x00'
p906
sS'high_fuses'
p907
S'0xdd'
p908
sS'low_fuses'
p909
S'0xff'
p910
sS'lock_bits'
p911
S'0x0F'
p912
sS'file'
p913
S'ATmegaBOOT_168_diecimila.hex'
p914
sS'path'
p915
S'atmega'
p916
sS'unlock_bits'
p917
S'0x3F'
p918
ssS'build'
p919
(dp920
S'core'
p921
S'arduino'
p922
sS'mcu'
p923
S'atmega168'
p924
sS'f_cpu'
p925
S'16000000L'
p926
sS'variant'
p927
S'standard'
p928
ssS'name'
p929
S'Arduino Pro or Pro Mini (5V, 16 MHz) w/ ATmega168'
p930
sS'upload'
p931
(dp932
S'protocol'
p933
S'arduino'
p934
sS'maximum_size'
p935
S'14336'
p936
sS'speed'
p937
S'19200'
p938
ssaa(lp939
S'pro328'
p940
a(dp941
g73
S'/usr/share/arduino/hardware/arduino'
p942
sS'bootloader'
p943
(dp944
S'extended_fuses'
p945
S'0x05'
p946
sS'high_fuses'
p947
S'0xDA'
p948
sS'low_fuses'
p949
S'0xFF'
p950
sS'lock_bits'
p951
S'0x0F'
p952
sS'file'
p953
S'ATmegaBOOT_168_atmega328_pro_8MHz.hex'
p954
sS'path'
p955
S'atmega'
p956
sS'unlock_bits'
p957
S'0x3F'
p958
ssS'build'
p959
(dp960
S'core'
p961
S'arduino'
p962
sS'mcu'
p963
S'atmega328p'
p964
sS'f_cpu'
p965
S'8000000L'
p966
sS'variant'
p967
S'standard'
p968
ssS'name'
p969
S'Arduino Pro or Pro Mini (3.3V, 8 MHz) w/ ATmega328'
p970
sS'upload'
p971
(dp972
S'protocol'
p973
S'arduino'
p974
sS'maximum_size'
p975
S'30720'
p976
sS'speed'
p977
S'57600'
p978
ssaa(lp979
S'pro'
p980
a(dp981
g73
S'/usr/share/arduino/hardware/arduino'
p982
sS'bootloader'
p983
(dp984
S'extended_fuses'
p985
S'0x00'
p986
sS'high_fuses'
p987
S'0xdd'
p988
sS'low_fuses'
p989
S'0xc6'
p990
sS'lock_bits'
p991
S'0x0F'
p992
sS'file'
p993
S'ATmegaBOOT_168_pro_8MHz.hex'
p994
sS'path'
p995
S'atmega'
p996
sS'unlock_bits'
p997
S'0x3F'
p998
ssS'build'
p999
(dp1000
S'core'
p1001
S'arduino'
p1002
sS'mcu'
p1003
S'atmega168'
p1004
sS'f_cpu'
p1005
S'8000000L'
p1006
sS'variant'
p1007
S'standard'
p1008
ssS'name'
p1009
S'Arduino Pro or Pro Mini (3.3V, 8 MHz) w/ ATmega168'
p1010
sS'upload'
p1011
(dp1012
S'protocol'
p1013
S'arduino'
p1014
sS'maximum_size'
p1015
S'14336'
p1016
sS'speed'
p1017
S'19200'
p1018
ssaa(lp1019
S'atmega168'
p1020
a(dp1021
g73
S'/usr/share/arduino/hardware/arduino'
p1022
sS'bootloader'
p1023
(dp1024
S'extended_fuses'
p1025
S'0x00'
p1026
sS'high_fuses'
p1027
S'0xdd'
p1028
sS'low_fuses'
p1029
S'0xff'
p1030
sS'lock_bits'
p1031
S'0x0F'
p1032
sS'file'
p1033
S'ATmegaBOOT_168_ng.hex'
p1034
sS'path'
p1035
S'atmega'
p1036
sS'unlock_bits'
p1037
S'0x3F'
p1038
ssS'build'
p1039
(dp1040
S'core'
p1041
S'arduino'
p1042
sS'mcu'
p1043
S'atmega168'
p1044
sS'f_cpu'
p1045
S'16000000L'
p1046
sS'variant'
p1047
S'standard'
p1048
ssS'name'
p1049
S'Arduino NG or older w/ ATmega168'
p1050
sS'upload'
p1051
(dp1052
S'protocol'
p1053
S'arduino'
p1054
sS'maximum_size'
p1055
S'14336'
p1056
sS'speed'
p1057
S'19200'
p1058
ssaa(lp1059
S'atmega8'
p1060
a(dp1061
g73
S'/usr/share/arduino/hardware/arduino'
p1062
sS'bootloader'
p1063
(dp1064
S'high_fuses'
p1065
S'0xca'
p1066
sS'low_fuses'
p1067
S'0xdf'
p1068
sS'lock_bits'
p1069
S'0x0F'
p1070
sS'file'
p1071
S'ATmegaBOOT-prod-firmware-2009-11-07.hex'
p1072
sS'path'
p1073
S'atmega8'
p1074
sS'unlock_bits'
p1075
S'0x3F'
p1076
ssS'build'
p1077
(dp1078
S'core'
p1079
S'arduino'
p1080
sS'mcu'
p1081
S'atmega8'
p1082
sS'f_cpu'
p1083
S'16000000L'
p1084
sS'variant'
p1085
S'standard'
p1086
ssS'name'
p1087
S'Arduino NG or older w/ ATmega8'
p1088
sS'upload'
p1089
(dp1090
S'protocol'
p1091
S'arduino'
p1092
sS'maximum_size'
p1093
S'7168'
p1094
sS'speed'
p1095
S'19200'
p1096
ssaa(lp1097
S'robotControl'
p1098
a(dp1099
g73
S'/usr/share/arduino/hardware/arduino'
p1100
sS'bootloader'
p1101
(dp1102
S'extended_fuses'
p1103
S'0xcb'
p1104
sS'high_fuses'
p1105
S'0xd8'
p1106
sS'low_fuses'
p1107
S'0xff'
p1108
sS'lock_bits'
p1109
S'0x2F'
p1110
sS'file'
p1111
S'Caterina-Robot-Control.hex'
p1112
sS'path'
p1113
S'caterina-Arduino_Robot'
p1114
sS'unlock_bits'
p1115
S'0x3F'
p1116
ssS'build'
p1117
(dp1118
S'core'
p1119
S'robot'
p1120
sS'f_cpu'
p1121
S'16000000L'
p1122
sS'vid'
p1123
S'0x2341'
p1124
sS'pid'
p1125
S'0x8038'
p1126
sS'variant'
p1127
S'robot_control'
p1128
sS'mcu'
p1129
S'atmega32u4'
p1130
ssS'name'
p1131
S'Arduino Robot Control'
p1132
sS'upload'
p1133
(dp1134
S'protocol'
p1135
S'avr109'
p1136
sS'maximum_size'
p1137
S'28672'
p1138
sS'speed'
p1139
S'57600'
p1140
sS'disable_flushing'
p1141
S'true'
p1142
ssaa(lp1143
S'robotMotor'
p1144
a(dp1145
g73
S'/usr/share/arduino/hardware/arduino'
p1146
sS'bootloader'
p1147
(dp1148
S'extended_fuses'
p1149
S'0xcb'
p1150
sS'high_fuses'
p1151
S'0xd8'
p1152
sS'low_fuses'
p1153
S'0xff'
p1154
sS'lock_bits'
p1155
S'0x2F'
p1156
sS'file'
p1157
S'Caterina-Robot-Motor.hex'
p1158
sS'path'
p1159
S'caterina-Arduino_Robot'
p1160
sS'unlock_bits'
p1161
S'0x3F'
p1162
ssS'build'
p1163
(dp1164
S'core'
p1165
S'robot'
p1166
sS'f_cpu'
p1167
S'16000000L'
p1168
sS'vid'
p1169
S'0x2341'
p1170
sS'pid'
p1171
S'0x8039'
p1172
sS'variant'
p1173
S'robot_motor'
p1174
sS'mcu'
p1175
S'atmega32u4'
p1176
ssS'name'
p1177
S'Arduino Robot Motor'
p1178
sS'upload'
p1179
(dp1180
S'protocol'
p1181
S'avr109'
p1182
sS'maximum_size'
p1183
S'28672'
p1184
sS'speed'
p1185
S'57600'
p1186
sS'disable_flushing'
p1187
S'true'
p1188
ssaatp1189
Rp1190
(dp1191
S'default'
p1192
S'uno'
p1193
sbtp1194
a(S'used_libs'
p1195
(lp1196
S'lib/aJson'
p1197
aS'lib/Tlc5940-master'
p1198
aS'lib/SimpleTimer'
p1199
aS'/usr/share/arduino/libraries/SoftwareSerial'
p1200
aS'/usr/share/arduino/hardware/arduino/cores/arduino'
p1201
atp1202
a(S'make'
p1203
S'/usr/share/arduino/hardware/tools/avr/bin/make'
p1204
tp1205
a(S'build_dir'
p1206
S'.build/uno'
p1207
tp1208
a(S'cc'
p1209
S'/usr/share/arduino/hardware/tools/avr/bin/avr-gcc'
p1210
tp1211
a(S'cflags'
p1212
g2
(g3
g4
(lp1213
tp1214
Rp1215
tp1216
a(S'cxxflags'
p1217
g2
(g3
g4
(lp1218
S'-fno-exceptions'
p1219
atp1220
Rp1221
tp1222
a(S'arduino_variants_dir'
p1223
S'/usr/share/arduino/hardware/arduino/variants'
p1224
tp1225
a(S'stty'
p1226
S'/bin/stty'
p1227
tp1228
a(S'version.txt'
p1229
S'/usr/share/arduino/lib/version.txt'
p1230
tp1231
a(S'arduino_core_dir'
p1232
g1201
tp1233
a(S'boards.txt'
p1234
(lp1235
S'/usr/share/arduino/hardware/arduino/boards.txt'
p1236
atp1237
a(S'avrdude.conf'
p1238
S'/usr/share/arduino/hardware/tools/avrdude.conf'
p1239
tp1240
a(S'deps'
p1241
g2
(g3
g4
(lp1242
S'.build/uno/src/dependencies.d'
p1243
aS'.build/uno/arduino/dependencies.d'
p1244
aS'.build/uno/aJson/dependencies.d'
p1245
aS'.build/uno/Tlc5940-master/dependencies.d'
p1246
aS'.build/uno/SimpleTimer/dependencies.d'
p1247
aS'.build/uno/SoftwareSerial/dependencies.d'
p1248
atp1249
Rp1250
tp1251
a.